
./.zig-cache/o/3fa5b24ed585ec8ddb0602e278a7e92b/oled:     file format elf32-littleriscv


Disassembly of section .text:

08000000 <.text>:
 8000000:	00000097          	auipc	ra,0x0
 8000004:	008080e7          	jalr	8(ra) # 0x8000008
 8000008:	f9810113          	addi	sp,sp,-104
 800000c:	d286                	sw	ra,100(sp)
 800000e:	d0a2                	sw	s0,96(sp)
 8000010:	cea6                	sw	s1,92(sp)
 8000012:	1ffff537          	lui	a0,0x1ffff
 8000016:	7d454583          	lbu	a1,2004(a0) # 0x1ffff7d4
 800001a:	f0158593          	addi	a1,a1,-255
 800001e:	cd81                	beqz	a1,0x8000036
 8000020:	400215b7          	lui	a1,0x40021
 8000024:	4190                	lw	a2,0(a1)
 8000026:	7d454503          	lbu	a0,2004(a0)
 800002a:	f0767613          	andi	a2,a2,-249
 800002e:	056e                	slli	a0,a0,0x1b
 8000030:	8161                	srli	a0,a0,0x18
 8000032:	8d51                	or	a0,a0,a2
 8000034:	c188                	sw	a0,0(a1)
 8000036:	40022537          	lui	a0,0x40022
 800003a:	410c                	lw	a1,0(a0)
 800003c:	40021437          	lui	s0,0x40021
 8000040:	99f1                	andi	a1,a1,-4
 8000042:	0585                	addi	a1,a1,1 # 0x40021001
 8000044:	c10c                	sw	a1,0(a0)
 8000046:	4048                	lw	a0,4(s0)
 8000048:	75c1                	lui	a1,0xffff0
 800004a:	f0c58593          	addi	a1,a1,-244 # 0xfffeff0c
 800004e:	8d6d                	and	a0,a0,a1
 8000050:	c048                	sw	a0,4(s0)
 8000052:	4008                	lw	a0,0(s0)
 8000054:	010005b7          	lui	a1,0x1000
 8000058:	8d4d                	or	a0,a0,a1
 800005a:	c008                	sw	a0,0(s0)
 800005c:	4008                	lw	a0,0(s0)
 800005e:	051a                	slli	a0,a0,0x6
 8000060:	fe055ee3          	bgez	a0,0x800005c
 8000064:	4048                	lw	a0,4(s0)
 8000066:	9971                	andi	a0,a0,-4
 8000068:	0509                	addi	a0,a0,2 # 0x40022002
 800006a:	c048                	sw	a0,4(s0)
 800006c:	4521                	li	a0,8
 800006e:	404c                	lw	a1,4(s0)
 8000070:	89b1                	andi	a1,a1,12
 8000072:	fea59ee3          	bne	a1,a0,0x800006e
 8000076:	e000f637          	lui	a2,0xe000f
 800007a:	65b1                	lui	a1,0xc
 800007c:	4515                	li	a0,5
 800007e:	4681                	li	a3,0
 8000080:	c214                	sw	a3,0(a2)
 8000082:	b7f58593          	addi	a1,a1,-1153 # 0xbb7f
 8000086:	ca0c                	sw	a1,16(a2)
 8000088:	c614                	sw	a3,8(a2)
 800008a:	c254                	sw	a3,4(a2)
 800008c:	c208                	sw	a0,0(a2)
 800008e:	4c08                	lw	a0,24(s0)
 8000090:	4589                	li	a1,2
 8000092:	4485                	li	s1,1
 8000094:	02056513          	ori	a0,a0,32
 8000098:	cc08                	sw	a0,24(s0)
 800009a:	10200513          	li	a0,258
 800009e:	04b10a23          	sb	a1,84(sp)
 80000a2:	04910ba3          	sb	s1,87(sp)
 80000a6:	04a11c23          	sh	a0,88(sp)
 80000aa:	08a8                	addi	a0,sp,88
 80000ac:	45a1                	li	a1,8
 80000ae:	00001097          	auipc	ra,0x1
 80000b2:	cbe080e7          	jalr	-834(ra) # 0x8000d6c
 80000b6:	05815503          	lhu	a0,88(sp)
 80000ba:	00357593          	andi	a1,a0,3
 80000be:	c599                	beqz	a1,0x80000cc
 80000c0:	4609                	li	a2,2
 80000c2:	00c58a63          	beq	a1,a2,0x80000d6
 80000c6:	400115b7          	lui	a1,0x40011
 80000ca:	a811                	j	0x80000de
 80000cc:	400115b7          	lui	a1,0x40011
 80000d0:	80058593          	addi	a1,a1,-2048 # 0x40010800
 80000d4:	a029                	j	0x80000de
 80000d6:	400115b7          	lui	a1,0x40011
 80000da:	40058593          	addi	a1,a1,1024 # 0x40011400
 80000de:	0552                	slli	a0,a0,0x14
 80000e0:	8171                	srli	a0,a0,0x1c
 80000e2:	00a49533          	sll	a0,s1,a0
 80000e6:	c988                	sw	a0,16(a1)
 80000e8:	4c08                	lw	a0,24(s0)
 80000ea:	01056513          	ori	a0,a0,16
 80000ee:	cc08                	sw	a0,24(s0)
 80000f0:	4c48                	lw	a0,28(s0)
 80000f2:	002005b7          	lui	a1,0x200
 80000f6:	8d4d                	or	a0,a0,a1
 80000f8:	cc48                	sw	a0,28(s0)
 80000fa:	049109a3          	sb	s1,83(sp)
 80000fe:	04910923          	sb	s1,82(sp)
 8000102:	04910a23          	sb	s1,84(sp)
 8000106:	04910aa3          	sb	s1,85(sp)
 800010a:	08c8                	addi	a0,sp,84
 800010c:	45b5                	li	a1,13
 800010e:	00001097          	auipc	ra,0x1
 8000112:	c5e080e7          	jalr	-930(ra) # 0x8000d6c
 8000116:	04910ba3          	sb	s1,87(sp)
 800011a:	4509                	li	a0,2
 800011c:	04a10b23          	sb	a0,86(sp)
 8000120:	04910c23          	sb	s1,88(sp)
 8000124:	04a10ca3          	sb	a0,89(sp)
 8000128:	08a8                	addi	a0,sp,88
 800012a:	45b5                	li	a1,13
 800012c:	00001097          	auipc	ra,0x1
 8000130:	c40080e7          	jalr	-960(ra) # 0x8000d6c
 8000134:	4808                	lw	a0,16(s0)
 8000136:	002005b7          	lui	a1,0x200
 800013a:	8d4d                	or	a0,a0,a1
 800013c:	c808                	sw	a0,16(s0)
 800013e:	4808                	lw	a0,16(s0)
 8000140:	ffe005b7          	lui	a1,0xffe00
 8000144:	15fd                	addi	a1,a1,-1 # 0xffdfffff
 8000146:	8d6d                	and	a0,a0,a1
 8000148:	400055b7          	lui	a1,0x40005
 800014c:	c808                	sw	a0,16(s0)
 800014e:	4045d503          	lhu	a0,1028(a1) # 0x40005404
 8000152:	6631                	lui	a2,0xc
 8000154:	0605                	addi	a2,a2,1 # 0xc001
 8000156:	fc057513          	andi	a0,a0,-64
 800015a:	0561                	addi	a0,a0,24
 800015c:	40a59223          	sh	a0,1028(a1)
 8000160:	40c59e23          	sh	a2,1052(a1)
 8000164:	40059503          	lh	a0,1024(a1)
 8000168:	00156513          	ori	a0,a0,1
 800016c:	40a59023          	sh	a0,1024(a1)
 8000170:	40059503          	lh	a0,1024(a1)
 8000174:	08001437          	lui	s0,0x8001
 8000178:	1fa40413          	addi	s0,s0,506 # 0x80011fa
 800017c:	40056513          	ori	a0,a0,1024
 8000180:	40a59023          	sh	a0,1024(a1)
 8000184:	44e5                	li	s1,25
 8000186:	c891                	beqz	s1,0x800019a
 8000188:	00044503          	lbu	a0,0(s0)
 800018c:	00000097          	auipc	ra,0x0
 8000190:	680080e7          	jalr	1664(ra) # 0x800080c
 8000194:	0405                	addi	s0,s0,1
 8000196:	14fd                	addi	s1,s1,-1
 8000198:	f8e5                	bnez	s1,0x8000188
 800019a:	20000537          	lui	a0,0x20000
 800019e:	00050513          	mv	a0,a0
 80001a2:	40000613          	li	a2,1024
 80001a6:	4581                	li	a1,0
 80001a8:	00001097          	auipc	ra,0x1
 80001ac:	040080e7          	jalr	64(ra) # 0x80011e8
 80001b0:	00000097          	auipc	ra,0x0
 80001b4:	57a080e7          	jalr	1402(ra) # 0x800072a
 80001b8:	d602                	sw	zero,44(sp)
 80001ba:	4681                	li	a3,0
 80001bc:	d202                	sw	zero,36(sp)
 80001be:	4701                	li	a4,0
 80001c0:	40011637          	lui	a2,0x40011
 80001c4:	0019a537          	lui	a0,0x19a
 80001c8:	0008d5b7          	lui	a1,0x8d
 80001cc:	28050513          	addi	a0,a0,640 # 0x19a280
 80001d0:	c22a                	sw	a0,4(sp)
 80001d2:	a0058513          	addi	a0,a1,-1536 # 0x8ca00
 80001d6:	c82a                	sw	a0,16(sp)
 80001d8:	6541                	lui	a0,0x10
 80001da:	80060593          	addi	a1,a2,-2048 # 0x40010800
 80001de:	c62e                	sw	a1,12(sp)
 80001e0:	156d                	addi	a0,a0,-5 # 0xfffb
 80001e2:	c42a                	sw	a0,8(sp)
 80001e4:	4785                	li	a5,1
 80001e6:	cc36                	sw	a3,24(sp)
 80001e8:	4589                	li	a1,2
 80001ea:	04b10c23          	sb	a1,88(sp)
 80001ee:	4505                	li	a0,1
 80001f0:	04a10a23          	sb	a0,84(sp)
 80001f4:	4532                	lw	a0,12(sp)
 80001f6:	c999                	beqz	a1,0x800020c
 80001f8:	4509                	li	a0,2
 80001fa:	00a51763          	bne	a0,a0,0x8000208
 80001fe:	40011537          	lui	a0,0x40011
 8000202:	40050513          	addi	a0,a0,1024 # 0x40011400
 8000206:	a019                	j	0x800020c
 8000208:	40011537          	lui	a0,0x40011
 800020c:	ce3e                	sw	a5,28(sp)
 800020e:	d03a                	sw	a4,32(sp)
 8000210:	4508                	lw	a0,8(a0)
 8000212:	ca2a                	sw	a0,20(sp)
 8000214:	40000613          	li	a2,1024
 8000218:	20000537          	lui	a0,0x20000
 800021c:	00050513          	mv	a0,a0
 8000220:	4581                	li	a1,0
 8000222:	00001097          	auipc	ra,0x1
 8000226:	fc6080e7          	jalr	-58(ra) # 0x80011e8
 800022a:	08000613          	li	a2,128
 800022e:	4685                	li	a3,1
 8000230:	4501                	li	a0,0
 8000232:	4581                	li	a1,0
 8000234:	00001097          	auipc	ra,0x1
 8000238:	c9e080e7          	jalr	-866(ra) # 0x8000ed2
 800023c:	03f00593          	li	a1,63
 8000240:	08000613          	li	a2,128
 8000244:	4685                	li	a3,1
 8000246:	4501                	li	a0,0
 8000248:	00001097          	auipc	ra,0x1
 800024c:	c8a080e7          	jalr	-886(ra) # 0x8000ed2
 8000250:	4585                	li	a1,1
 8000252:	03e00613          	li	a2,62
 8000256:	4501                	li	a0,0
 8000258:	00001097          	auipc	ra,0x1
 800025c:	cbc080e7          	jalr	-836(ra) # 0x8000f14
 8000260:	07f00513          	li	a0,127
 8000264:	4585                	li	a1,1
 8000266:	03e00613          	li	a2,62
 800026a:	00001097          	auipc	ra,0x1
 800026e:	caa080e7          	jalr	-854(ra) # 0x8000f14
 8000272:	08a8                	addi	a0,sp,88
 8000274:	4595                	li	a1,5
 8000276:	4601                	li	a2,0
 8000278:	00001097          	auipc	ra,0x1
 800027c:	8f2080e7          	jalr	-1806(ra) # 0x8000b6a
 8000280:	4466                	lw	s0,88(sp)
 8000282:	01041513          	slli	a0,s0,0x10
 8000286:	08000593          	li	a1,128
 800028a:	8d81                	sub	a1,a1,s0
 800028c:	41055493          	srai	s1,a0,0x10
 8000290:	01059513          	slli	a0,a1,0x10
 8000294:	8541                	srai	a0,a0,0x10
 8000296:	4589                	li	a1,2
 8000298:	00001097          	auipc	ra,0x1
 800029c:	dd2080e7          	jalr	-558(ra) # 0x800106a
 80002a0:	d42a                	sw	a0,40(sp)
 80002a2:	5565                	li	a0,-7
 80002a4:	02a4c363          	blt	s1,a0,0x80002ca
 80002a8:	00840613          	addi	a2,s0,8
 80002ac:	01061513          	slli	a0,a2,0x10
 80002b0:	01055593          	srli	a1,a0,0x10
 80002b4:	5522                	lw	a0,40(sp)
 80002b6:	1571                	addi	a0,a0,-4 # 0x1ffffffc
 80002b8:	4689                	li	a3,2
 80002ba:	38b6e663          	bltu	a3,a1,0x8000646
 80002be:	4589                	li	a1,2
 80002c0:	46b1                	li	a3,12
 80002c2:	00000097          	auipc	ra,0x0
 80002c6:	7be080e7          	jalr	1982(ra) # 0x8000a80
 80002ca:	4505                	li	a0,1
 80002cc:	45d2                	lw	a1,20(sp)
 80002ce:	00a5d533          	srl	a0,a1,a0
 80002d2:	8905                	andi	a0,a0,1
 80002d4:	00153593          	seqz	a1,a0
 80002d8:	4562                	lw	a0,24(sp)
 80002da:	00154513          	xori	a0,a0,1
 80002de:	d82e                	sw	a1,48(sp)
 80002e0:	8d6d                	and	a0,a0,a1
 80002e2:	5412                	lw	s0,36(sp)
 80002e4:	8c29                	xor	s0,s0,a0
 80002e6:	4615                	li	a2,5
 80002e8:	5522                	lw	a0,40(sp)
 80002ea:	080015b7          	lui	a1,0x8001
 80002ee:	22158593          	addi	a1,a1,545 # 0x8001221
 80002f2:	4681                	li	a3,0
 80002f4:	00000097          	auipc	ra,0x0
 80002f8:	538080e7          	jalr	1336(ra) # 0x800082c
 80002fc:	d222                	sw	s0,36(sp)
 80002fe:	8805                	andi	s0,s0,1
 8000300:	080015b7          	lui	a1,0x8001
 8000304:	21858593          	addi	a1,a1,536 # 0x8001218
 8000308:	d422                	sw	s0,40(sp)
 800030a:	e409                	bnez	s0,0x8000314
 800030c:	080015b7          	lui	a1,0x8001
 8000310:	21358593          	addi	a1,a1,531 # 0x8001213
 8000314:	05c00513          	li	a0,92
 8000318:	4611                	li	a2,4
 800031a:	4685                	li	a3,1
 800031c:	00000097          	auipc	ra,0x0
 8000320:	510080e7          	jalr	1296(ra) # 0x800082c
 8000324:	4511                	li	a0,4
 8000326:	45c1                	li	a1,16
 8000328:	4679                	li	a2,30
 800032a:	46d1                	li	a3,20
 800032c:	4715                	li	a4,5
 800032e:	00000097          	auipc	ra,0x0
 8000332:	51e080e7          	jalr	1310(ra) # 0x800084c
 8000336:	4481                	li	s1,0
 8000338:	5532                	lw	a0,44(sp)
 800033a:	8911                	andi	a0,a0,4
 800033c:	4699                	li	a3,6
 800033e:	00a03533          	snez	a0,a0
 8000342:	dc2a                	sw	a0,56(sp)
 8000344:	4722                	lw	a4,8(sp)
 8000346:	01049513          	slli	a0,s1,0x10
 800034a:	01069593          	slli	a1,a3,0x10
 800034e:	8541                	srai	a0,a0,0x10
 8000350:	85c1                	srai	a1,a1,0x10
 8000352:	08a5ce63          	blt	a1,a0,0x80003ee
 8000356:	454d                	li	a0,19
 8000358:	8d15                	sub	a0,a0,a3
 800035a:	de2a                	sw	a0,60(sp)
 800035c:	01a48593          	addi	a1,s1,26
 8000360:	c4b6                	sw	a3,72(sp)
 8000362:	4426                	lw	s0,72(sp)
 8000364:	0406                	slli	s0,s0,0x1
 8000366:	00140613          	addi	a2,s0,1
 800036a:	c2b2                	sw	a2,68(sp)
 800036c:	5462                	lw	s0,56(sp)
 800036e:	86a2                	mv	a3,s0
 8000370:	c0ba                	sw	a4,64(sp)
 8000372:	00001097          	auipc	ra,0x1
 8000376:	b60080e7          	jalr	-1184(ra) # 0x8000ed2
 800037a:	45e9                	li	a1,26
 800037c:	8d85                	sub	a1,a1,s1
 800037e:	5572                	lw	a0,60(sp)
 8000380:	4616                	lw	a2,68(sp)
 8000382:	86a2                	mv	a3,s0
 8000384:	00001097          	auipc	ra,0x1
 8000388:	b4e080e7          	jalr	-1202(ra) # 0x8000ed2
 800038c:	454d                	li	a0,19
 800038e:	8d05                	sub	a0,a0,s1
 8000390:	45a6                	lw	a1,72(sp)
 8000392:	05e9                	addi	a1,a1,26
 8000394:	c2a6                	sw	s1,68(sp)
 8000396:	0486                	slli	s1,s1,0x1
 8000398:	00148613          	addi	a2,s1,1
 800039c:	de32                	sw	a2,60(sp)
 800039e:	84aa                	mv	s1,a0
 80003a0:	86a2                	mv	a3,s0
 80003a2:	00001097          	auipc	ra,0x1
 80003a6:	b30080e7          	jalr	-1232(ra) # 0x8000ed2
 80003aa:	4526                	lw	a0,72(sp)
 80003ac:	45e9                	li	a1,26
 80003ae:	8d89                	sub	a1,a1,a0
 80003b0:	8526                	mv	a0,s1
 80003b2:	44a6                	lw	s1,72(sp)
 80003b4:	5672                	lw	a2,60(sp)
 80003b6:	86a2                	mv	a3,s0
 80003b8:	00001097          	auipc	ra,0x1
 80003bc:	b1a080e7          	jalr	-1254(ra) # 0x8000ed2
 80003c0:	4706                	lw	a4,64(sp)
 80003c2:	01071593          	slli	a1,a4,0x10
 80003c6:	86a6                	mv	a3,s1
 80003c8:	fff48513          	addi	a0,s1,-1
 80003cc:	0005c363          	bltz	a1,0x80003d2
 80003d0:	86aa                	mv	a3,a0
 80003d2:	4496                	lw	s1,68(sp)
 80003d4:	0485                	addi	s1,s1,1
 80003d6:	85c1                	srai	a1,a1,0x10
 80003d8:	0005a593          	slti	a1,a1,0
 80003dc:	15fd                	addi	a1,a1,-1
 80003de:	8d6d                	and	a0,a0,a1
 80003e0:	40a48533          	sub	a0,s1,a0
 80003e4:	0506                	slli	a0,a0,0x1
 80003e6:	953a                	add	a0,a0,a4
 80003e8:	00150713          	addi	a4,a0,1
 80003ec:	bfa9                	j	0x8000346
 80003ee:	4549                	li	a0,18
 80003f0:	02200593          	li	a1,34
 80003f4:	00000097          	auipc	ra,0x0
 80003f8:	5d4080e7          	jalr	1492(ra) # 0x80009c8
 80003fc:	02200513          	li	a0,34
 8000400:	45c9                	li	a1,18
 8000402:	00000097          	auipc	ra,0x0
 8000406:	5c6080e7          	jalr	1478(ra) # 0x80009c8
 800040a:	4401                	li	s0,0
 800040c:	44a1                	li	s1,8
 800040e:	6541                	lui	a0,0x10
 8000410:	ff950693          	addi	a3,a0,-7 # 0xfff9
 8000414:	01041513          	slli	a0,s0,0x10
 8000418:	01049593          	slli	a1,s1,0x10
 800041c:	8541                	srai	a0,a0,0x10
 800041e:	85c1                	srai	a1,a1,0x10
 8000420:	0ca5c963          	blt	a1,a0,0x80004f2
 8000424:	04848513          	addi	a0,s1,72
 8000428:	de2a                	sw	a0,60(sp)
 800042a:	01a40593          	addi	a1,s0,26
 800042e:	c2ae                	sw	a1,68(sp)
 8000430:	4605                	li	a2,1
 8000432:	c0b6                	sw	a3,64(sp)
 8000434:	00001097          	auipc	ra,0x1
 8000438:	b20080e7          	jalr	-1248(ra) # 0x8000f54
 800043c:	04840513          	addi	a0,s0,72
 8000440:	dc2a                	sw	a0,56(sp)
 8000442:	c4a6                	sw	s1,72(sp)
 8000444:	44a6                	lw	s1,72(sp)
 8000446:	04e9                	addi	s1,s1,26
 8000448:	4605                	li	a2,1
 800044a:	85a6                	mv	a1,s1
 800044c:	00001097          	auipc	ra,0x1
 8000450:	b08080e7          	jalr	-1272(ra) # 0x8000f54
 8000454:	04800513          	li	a0,72
 8000458:	8d01                	sub	a0,a0,s0
 800045a:	da2a                	sw	a0,52(sp)
 800045c:	4605                	li	a2,1
 800045e:	85a6                	mv	a1,s1
 8000460:	00001097          	auipc	ra,0x1
 8000464:	af4080e7          	jalr	-1292(ra) # 0x8000f54
 8000468:	4526                	lw	a0,72(sp)
 800046a:	04800493          	li	s1,72
 800046e:	8c89                	sub	s1,s1,a0
 8000470:	4605                	li	a2,1
 8000472:	8526                	mv	a0,s1
 8000474:	4596                	lw	a1,68(sp)
 8000476:	00001097          	auipc	ra,0x1
 800047a:	ade080e7          	jalr	-1314(ra) # 0x8000f54
 800047e:	4569                	li	a0,26
 8000480:	c2a2                	sw	s0,68(sp)
 8000482:	40850433          	sub	s0,a0,s0
 8000486:	4605                	li	a2,1
 8000488:	8526                	mv	a0,s1
 800048a:	85a2                	mv	a1,s0
 800048c:	00001097          	auipc	ra,0x1
 8000490:	ac8080e7          	jalr	-1336(ra) # 0x8000f54
 8000494:	4526                	lw	a0,72(sp)
 8000496:	44e9                	li	s1,26
 8000498:	8c89                	sub	s1,s1,a0
 800049a:	4605                	li	a2,1
 800049c:	5552                	lw	a0,52(sp)
 800049e:	85a6                	mv	a1,s1
 80004a0:	00001097          	auipc	ra,0x1
 80004a4:	ab4080e7          	jalr	-1356(ra) # 0x8000f54
 80004a8:	4605                	li	a2,1
 80004aa:	5562                	lw	a0,56(sp)
 80004ac:	85a6                	mv	a1,s1
 80004ae:	44a6                	lw	s1,72(sp)
 80004b0:	00001097          	auipc	ra,0x1
 80004b4:	aa4080e7          	jalr	-1372(ra) # 0x8000f54
 80004b8:	4605                	li	a2,1
 80004ba:	5572                	lw	a0,60(sp)
 80004bc:	85a2                	mv	a1,s0
 80004be:	00001097          	auipc	ra,0x1
 80004c2:	a96080e7          	jalr	-1386(ra) # 0x8000f54
 80004c6:	4686                	lw	a3,64(sp)
 80004c8:	01069593          	slli	a1,a3,0x10
 80004cc:	fff48513          	addi	a0,s1,-1
 80004d0:	0005c363          	bltz	a1,0x80004d6
 80004d4:	84aa                	mv	s1,a0
 80004d6:	4416                	lw	s0,68(sp)
 80004d8:	0405                	addi	s0,s0,1
 80004da:	85c1                	srai	a1,a1,0x10
 80004dc:	0005a593          	slti	a1,a1,0
 80004e0:	15fd                	addi	a1,a1,-1
 80004e2:	8d6d                	and	a0,a0,a1
 80004e4:	40a40533          	sub	a0,s0,a0
 80004e8:	0506                	slli	a0,a0,0x1
 80004ea:	9536                	add	a0,a0,a3
 80004ec:	00150693          	addi	a3,a0,1
 80004f0:	b715                	j	0x8000414
 80004f2:	05600513          	li	a0,86
 80004f6:	45c9                	li	a1,18
 80004f8:	4649                	li	a2,18
 80004fa:	46c1                	li	a3,16
 80004fc:	00000097          	auipc	ra,0x0
 8000500:	584080e7          	jalr	1412(ra) # 0x8000a80
 8000504:	05b00513          	li	a0,91
 8000508:	45d9                	li	a1,22
 800050a:	4601                	li	a2,0
 800050c:	4681                	li	a3,0
 800050e:	00000097          	auipc	ra,0x0
 8000512:	5be080e7          	jalr	1470(ra) # 0x8000acc
 8000516:	06c00513          	li	a0,108
 800051a:	45c9                	li	a1,18
 800051c:	4641                	li	a2,16
 800051e:	46c1                	li	a3,16
 8000520:	4711                	li	a4,4
 8000522:	00000097          	auipc	ra,0x0
 8000526:	32a080e7          	jalr	810(ra) # 0x800084c
 800052a:	07000513          	li	a0,112
 800052e:	45d9                	li	a1,22
 8000530:	4605                	li	a2,1
 8000532:	4685                	li	a3,1
 8000534:	00000097          	auipc	ra,0x0
 8000538:	598080e7          	jalr	1432(ra) # 0x8000acc
 800053c:	5432                	lw	s0,44(sp)
 800053e:	0462                	slli	s0,s0,0x18
 8000540:	8071                	srli	s0,s0,0x1c
 8000542:	04e10513          	addi	a0,sp,78
 8000546:	458d                	li	a1,3
 8000548:	8622                	mv	a2,s0
 800054a:	00000097          	auipc	ra,0x0
 800054e:	620080e7          	jalr	1568(ra) # 0x8000b6a
 8000552:	04e11503          	lh	a0,78(sp)
 8000556:	44c9                	li	s1,18
 8000558:	40a48533          	sub	a0,s1,a0
 800055c:	0542                	slli	a0,a0,0x10
 800055e:	8541                	srai	a0,a0,0x10
 8000560:	4589                	li	a1,2
 8000562:	00001097          	auipc	ra,0x1
 8000566:	b08080e7          	jalr	-1272(ra) # 0x800106a
 800056a:	05011583          	lh	a1,80(sp)
 800056e:	0519                	addi	a0,a0,6
 8000570:	c4aa                	sw	a0,72(sp)
 8000572:	40b48533          	sub	a0,s1,a1
 8000576:	0542                	slli	a0,a0,0x10
 8000578:	8541                	srai	a0,a0,0x10
 800057a:	4589                	li	a1,2
 800057c:	00001097          	auipc	ra,0x1
 8000580:	aee080e7          	jalr	-1298(ra) # 0x800106a
 8000584:	02850493          	addi	s1,a0,40
 8000588:	4511                	li	a0,4
 800058a:	02600593          	li	a1,38
 800058e:	4659                	li	a2,22
 8000590:	46d9                	li	a3,22
 8000592:	4711                	li	a4,4
 8000594:	00000097          	auipc	ra,0x0
 8000598:	2b8080e7          	jalr	696(ra) # 0x800084c
 800059c:	468d                	li	a3,3
 800059e:	4705                	li	a4,1
 80005a0:	c002                	sw	zero,0(sp)
 80005a2:	4526                	lw	a0,72(sp)
 80005a4:	85a6                	mv	a1,s1
 80005a6:	08001637          	lui	a2,0x8001
 80005aa:	21d60613          	addi	a2,a2,541 # 0x800121d
 80005ae:	87a2                	mv	a5,s0
 80005b0:	00000097          	auipc	ra,0x0
 80005b4:	5e6080e7          	jalr	1510(ra) # 0x8000b96
 80005b8:	5402                	lw	s0,32(sp)
 80005ba:	8522                	mv	a0,s0
 80005bc:	4581                	li	a1,0
 80005be:	00000097          	auipc	ra,0x0
 80005c2:	734080e7          	jalr	1844(ra) # 0x8000cf2
 80005c6:	02000513          	li	a0,32
 80005ca:	4585                	li	a1,1
 80005cc:	00000097          	auipc	ra,0x0
 80005d0:	726080e7          	jalr	1830(ra) # 0x8000cf2
 80005d4:	03000513          	li	a0,48
 80005d8:	4589                	li	a1,2
 80005da:	00000097          	auipc	ra,0x0
 80005de:	718080e7          	jalr	1816(ra) # 0x8000cf2
 80005e2:	04000513          	li	a0,64
 80005e6:	458d                	li	a1,3
 80005e8:	00000097          	auipc	ra,0x0
 80005ec:	70a080e7          	jalr	1802(ra) # 0x8000cf2
 80005f0:	05400513          	li	a0,84
 80005f4:	02c00593          	li	a1,44
 80005f8:	4689                	li	a3,2
 80005fa:	4601                	li	a2,0
 80005fc:	00000097          	auipc	ra,0x0
 8000600:	4d0080e7          	jalr	1232(ra) # 0x8000acc
 8000604:	00000097          	auipc	ra,0x0
 8000608:	126080e7          	jalr	294(ra) # 0x800072a
 800060c:	47f2                	lw	a5,28(sp)
 800060e:	00f40533          	add	a0,s0,a5
 8000612:	0542                	slli	a0,a0,0x10
 8000614:	41055713          	srai	a4,a0,0x10
 8000618:	00e04363          	bgtz	a4,0x800061e
 800061c:	4785                	li	a5,1
 800061e:	4542                	lw	a0,16(sp)
 8000620:	e000f6b7          	lui	a3,0xe000f
 8000624:	55a2                	lw	a1,40(sp)
 8000626:	e191                	bnez	a1,0x800062a
 8000628:	4512                	lw	a0,4(sp)
 800062a:	468c                	lw	a1,8(a3)
 800062c:	07872613          	slti	a2,a4,120
 8000630:	167d                	addi	a2,a2,-1
 8000632:	8fd1                	or	a5,a5,a2
 8000634:	4690                	lw	a2,8(a3)
 8000636:	8e0d                	sub	a2,a2,a1
 8000638:	fea66ee3          	bltu	a2,a0,0x8000634
 800063c:	5532                	lw	a0,44(sp)
 800063e:	0505                	addi	a0,a0,1
 8000640:	d62a                	sw	a0,44(sp)
 8000642:	56c2                	lw	a3,48(sp)
 8000644:	b64d                	j	0x80001e6
 8000646:	041d                	addi	s0,s0,7
 8000648:	0442                	slli	s0,s0,0x10
 800064a:	8045                	srli	s0,s0,0x11
 800064c:	4591                	li	a1,4
 800064e:	00b46363          	bltu	s0,a1,0x8000654
 8000652:	4411                	li	s0,4
 8000654:	9522                	add	a0,a0,s0
 8000656:	00141593          	slli	a1,s0,0x1
 800065a:	8e0d                	sub	a2,a2,a1
 800065c:	4589                	li	a1,2
 800065e:	46b1                	li	a3,12
 8000660:	c4aa                	sw	a0,72(sp)
 8000662:	c2b2                	sw	a2,68(sp)
 8000664:	00000097          	auipc	ra,0x0
 8000668:	41c080e7          	jalr	1052(ra) # 0x8000a80
 800066c:	4781                	li	a5,0
 800066e:	4505                	li	a0,1
 8000670:	408506b3          	sub	a3,a0,s0
 8000674:	00240513          	addi	a0,s0,2
 8000678:	c0aa                	sw	a0,64(sp)
 800067a:	4535                	li	a0,13
 800067c:	8d01                	sub	a0,a0,s0
 800067e:	de2a                	sw	a0,60(sp)
 8000680:	01079513          	slli	a0,a5,0x10
 8000684:	01041593          	slli	a1,s0,0x10
 8000688:	8541                	srai	a0,a0,0x10
 800068a:	85c1                	srai	a1,a1,0x10
 800068c:	c2a5cfe3          	blt	a1,a0,0x80002ca
 8000690:	4526                	lw	a0,72(sp)
 8000692:	40850733          	sub	a4,a0,s0
 8000696:	dc3a                	sw	a4,56(sp)
 8000698:	4586                	lw	a1,64(sp)
 800069a:	8d9d                	sub	a1,a1,a5
 800069c:	00141493          	slli	s1,s0,0x1
 80006a0:	4516                	lw	a0,68(sp)
 80006a2:	00a48633          	add	a2,s1,a0
 80006a6:	d832                	sw	a2,48(sp)
 80006a8:	da36                	sw	a3,52(sp)
 80006aa:	4685                	li	a3,1
 80006ac:	853a                	mv	a0,a4
 80006ae:	84be                	mv	s1,a5
 80006b0:	00001097          	auipc	ra,0x1
 80006b4:	822080e7          	jalr	-2014(ra) # 0x8000ed2
 80006b8:	55f2                	lw	a1,60(sp)
 80006ba:	95a6                	add	a1,a1,s1
 80006bc:	4685                	li	a3,1
 80006be:	5562                	lw	a0,56(sp)
 80006c0:	5642                	lw	a2,48(sp)
 80006c2:	00001097          	auipc	ra,0x1
 80006c6:	810080e7          	jalr	-2032(ra) # 0x8000ed2
 80006ca:	4526                	lw	a0,72(sp)
 80006cc:	40950633          	sub	a2,a0,s1
 80006d0:	d832                	sw	a2,48(sp)
 80006d2:	4586                	lw	a1,64(sp)
 80006d4:	8d81                	sub	a1,a1,s0
 80006d6:	dc26                	sw	s1,56(sp)
 80006d8:	0486                	slli	s1,s1,0x1
 80006da:	4516                	lw	a0,68(sp)
 80006dc:	94aa                	add	s1,s1,a0
 80006de:	4685                	li	a3,1
 80006e0:	8532                	mv	a0,a2
 80006e2:	8626                	mv	a2,s1
 80006e4:	00000097          	auipc	ra,0x0
 80006e8:	7ee080e7          	jalr	2030(ra) # 0x8000ed2
 80006ec:	55f2                	lw	a1,60(sp)
 80006ee:	95a2                	add	a1,a1,s0
 80006f0:	4685                	li	a3,1
 80006f2:	5542                	lw	a0,48(sp)
 80006f4:	8626                	mv	a2,s1
 80006f6:	00000097          	auipc	ra,0x0
 80006fa:	7dc080e7          	jalr	2012(ra) # 0x8000ed2
 80006fe:	56d2                	lw	a3,52(sp)
 8000700:	01069593          	slli	a1,a3,0x10
 8000704:	fff40513          	addi	a0,s0,-1
 8000708:	0005c363          	bltz	a1,0x800070e
 800070c:	842a                	mv	s0,a0
 800070e:	57e2                	lw	a5,56(sp)
 8000710:	0785                	addi	a5,a5,1
 8000712:	85c1                	srai	a1,a1,0x10
 8000714:	0005a593          	slti	a1,a1,0
 8000718:	15fd                	addi	a1,a1,-1
 800071a:	8d6d                	and	a0,a0,a1
 800071c:	40a78533          	sub	a0,a5,a0
 8000720:	0506                	slli	a0,a0,0x1
 8000722:	9536                	add	a0,a0,a3
 8000724:	00150693          	addi	a3,a0,1
 8000728:	bfa1                	j	0x8000680
 800072a:	fc810113          	addi	sp,sp,-56
 800072e:	da06                	sw	ra,52(sp)
 8000730:	d822                	sw	s0,48(sp)
 8000732:	d626                	sw	s1,44(sp)
 8000734:	02100513          	li	a0,33
 8000738:	00000097          	auipc	ra,0x0
 800073c:	0d4080e7          	jalr	212(ra) # 0x800080c
 8000740:	01051593          	slli	a1,a0,0x10
 8000744:	edd5                	bnez	a1,0x8000800
 8000746:	4501                	li	a0,0
 8000748:	00000097          	auipc	ra,0x0
 800074c:	0c4080e7          	jalr	196(ra) # 0x800080c
 8000750:	01051593          	slli	a1,a0,0x10
 8000754:	e5d5                	bnez	a1,0x8000800
 8000756:	07f00513          	li	a0,127
 800075a:	00000097          	auipc	ra,0x0
 800075e:	0b2080e7          	jalr	178(ra) # 0x800080c
 8000762:	01051593          	slli	a1,a0,0x10
 8000766:	edc9                	bnez	a1,0x8000800
 8000768:	02200513          	li	a0,34
 800076c:	00000097          	auipc	ra,0x0
 8000770:	0a0080e7          	jalr	160(ra) # 0x800080c
 8000774:	01051593          	slli	a1,a0,0x10
 8000778:	e5c1                	bnez	a1,0x8000800
 800077a:	4501                	li	a0,0
 800077c:	00000097          	auipc	ra,0x0
 8000780:	090080e7          	jalr	144(ra) # 0x800080c
 8000784:	01051593          	slli	a1,a0,0x10
 8000788:	eda5                	bnez	a1,0x8000800
 800078a:	451d                	li	a0,7
 800078c:	00000097          	auipc	ra,0x0
 8000790:	080080e7          	jalr	128(ra) # 0x800080c
 8000794:	01051593          	slli	a1,a0,0x10
 8000798:	e5a5                	bnez	a1,0x8000800
 800079a:	02000413          	li	s0,32
 800079e:	4485                	li	s1,1
 80007a0:	40000613          	li	a2,1024
 80007a4:	8522                	mv	a0,s0
 80007a6:	00c46463          	bltu	s0,a2,0x80007ae
 80007aa:	40000513          	li	a0,1024
 80007ae:	3ff00613          	li	a2,1023
 80007b2:	04b66663          	bltu	a2,a1,0x80007fe
 80007b6:	00950633          	add	a2,a0,s1
 80007ba:	c032                	sw	a2,0(sp)
 80007bc:	02058513          	addi	a0,a1,32
 80007c0:	c22a                	sw	a0,4(sp)
 80007c2:	20000537          	lui	a0,0x20000
 80007c6:	00050513          	mv	a0,a0
 80007ca:	95aa                	add	a1,a1,a0
 80007cc:	167d                	addi	a2,a2,-1
 80007ce:	04000513          	li	a0,64
 80007d2:	00a105a3          	sb	a0,11(sp)
 80007d6:	0068                	addi	a0,sp,12
 80007d8:	00001097          	auipc	ra,0x1
 80007dc:	9fa080e7          	jalr	-1542(ra) # 0x80011d2
 80007e0:	00b10513          	addi	a0,sp,11
 80007e4:	4582                	lw	a1,0(sp)
 80007e6:	00000097          	auipc	ra,0x0
 80007ea:	5d4080e7          	jalr	1492(ra) # 0x8000dba
 80007ee:	02040413          	addi	s0,s0,32
 80007f2:	01051613          	slli	a2,a0,0x10
 80007f6:	1481                	addi	s1,s1,-32
 80007f8:	4592                	lw	a1,4(sp)
 80007fa:	d25d                	beqz	a2,0x80007a0
 80007fc:	a011                	j	0x8000800
 80007fe:	4501                	li	a0,0
 8000800:	50d2                	lw	ra,52(sp)
 8000802:	5442                	lw	s0,48(sp)
 8000804:	54b2                	lw	s1,44(sp)
 8000806:	03810113          	addi	sp,sp,56
 800080a:	8082                	ret
 800080c:	1161                	addi	sp,sp,-8
 800080e:	c206                	sw	ra,4(sp)
 8000810:	00010123          	sb	zero,2(sp)
 8000814:	00a101a3          	sb	a0,3(sp)
 8000818:	00210513          	addi	a0,sp,2
 800081c:	4589                	li	a1,2
 800081e:	00000097          	auipc	ra,0x0
 8000822:	59c080e7          	jalr	1436(ra) # 0x8000dba
 8000826:	4092                	lw	ra,4(sp)
 8000828:	0121                	addi	sp,sp,8
 800082a:	8082                	ret
 800082c:	1161                	addi	sp,sp,-8
 800082e:	c206                	sw	ra,4(sp)
 8000830:	8736                	mv	a4,a3
 8000832:	86b2                	mv	a3,a2
 8000834:	862e                	mv	a2,a1
 8000836:	4785                	li	a5,1
 8000838:	4591                	li	a1,4
 800083a:	c03e                	sw	a5,0(sp)
 800083c:	4781                	li	a5,0
 800083e:	00000097          	auipc	ra,0x0
 8000842:	358080e7          	jalr	856(ra) # 0x8000b96
 8000846:	4092                	lw	ra,4(sp)
 8000848:	0121                	addi	sp,sp,8
 800084a:	8082                	ret
 800084c:	fc410113          	addi	sp,sp,-60
 8000850:	dc06                	sw	ra,56(sp)
 8000852:	da22                	sw	s0,52(sp)
 8000854:	d826                	sw	s1,48(sp)
 8000856:	d236                	sw	a3,36(sp)
 8000858:	d032                	sw	a2,32(sp)
 800085a:	842e                	mv	s0,a1
 800085c:	cc2a                	sw	a0,24(sp)
 800085e:	d63a                	sw	a4,44(sp)
 8000860:	00a704b3          	add	s1,a4,a0
 8000864:	0706                	slli	a4,a4,0x1
 8000866:	ca3a                	sw	a4,20(sp)
 8000868:	8e19                	sub	a2,a2,a4
 800086a:	c832                	sw	a2,16(sp)
 800086c:	4685                	li	a3,1
 800086e:	8526                	mv	a0,s1
 8000870:	00000097          	auipc	ra,0x0
 8000874:	662080e7          	jalr	1634(ra) # 0x8000ed2
 8000878:	5512                	lw	a0,36(sp)
 800087a:	9522                	add	a0,a0,s0
 800087c:	ce2a                	sw	a0,28(sp)
 800087e:	fff50593          	addi	a1,a0,-1 # 0x1fffffff
 8000882:	4685                	li	a3,1
 8000884:	d426                	sw	s1,40(sp)
 8000886:	8526                	mv	a0,s1
 8000888:	4642                	lw	a2,16(sp)
 800088a:	00000097          	auipc	ra,0x0
 800088e:	648080e7          	jalr	1608(ra) # 0x8000ed2
 8000892:	5532                	lw	a0,44(sp)
 8000894:	942a                	add	s0,s0,a0
 8000896:	5512                	lw	a0,36(sp)
 8000898:	45d2                	lw	a1,20(sp)
 800089a:	40b50633          	sub	a2,a0,a1
 800089e:	d232                	sw	a2,36(sp)
 80008a0:	44e2                	lw	s1,24(sp)
 80008a2:	8526                	mv	a0,s1
 80008a4:	85a2                	mv	a1,s0
 80008a6:	00000097          	auipc	ra,0x0
 80008aa:	66e080e7          	jalr	1646(ra) # 0x8000f14
 80008ae:	5502                	lw	a0,32(sp)
 80008b0:	94aa                	add	s1,s1,a0
 80008b2:	fff48513          	addi	a0,s1,-1
 80008b6:	c422                	sw	s0,8(sp)
 80008b8:	85a2                	mv	a1,s0
 80008ba:	5612                	lw	a2,36(sp)
 80008bc:	00000097          	auipc	ra,0x0
 80008c0:	658080e7          	jalr	1624(ra) # 0x8000f14
 80008c4:	56b2                	lw	a3,44(sp)
 80008c6:	4601                	li	a2,0
 80008c8:	fff6c513          	not	a0,a3
 80008cc:	94aa                	add	s1,s1,a0
 80008ce:	c226                	sw	s1,4(sp)
 80008d0:	45f2                	lw	a1,28(sp)
 80008d2:	952e                	add	a0,a0,a1
 80008d4:	c02a                	sw	a0,0(sp)
 80008d6:	4705                	li	a4,1
 80008d8:	8f15                	sub	a4,a4,a3
 80008da:	01061513          	slli	a0,a2,0x10
 80008de:	01069593          	slli	a1,a3,0x10
 80008e2:	8541                	srai	a0,a0,0x10
 80008e4:	85c1                	srai	a1,a1,0x10
 80008e6:	0ca5cb63          	blt	a1,a0,0x80009bc
 80008ea:	5522                	lw	a0,40(sp)
 80008ec:	8d15                	sub	a0,a0,a3
 80008ee:	ce2a                	sw	a0,28(sp)
 80008f0:	4422                	lw	s0,8(sp)
 80008f2:	40c405b3          	sub	a1,s0,a2
 80008f6:	d22e                	sw	a1,36(sp)
 80008f8:	84b2                	mv	s1,a2
 80008fa:	4605                	li	a2,1
 80008fc:	d636                	sw	a3,44(sp)
 80008fe:	d03a                	sw	a4,32(sp)
 8000900:	00000097          	auipc	ra,0x0
 8000904:	654080e7          	jalr	1620(ra) # 0x8000f54
 8000908:	55a2                	lw	a1,40(sp)
 800090a:	8d85                	sub	a1,a1,s1
 800090c:	cc2e                	sw	a1,24(sp)
 800090e:	5532                	lw	a0,44(sp)
 8000910:	8c09                	sub	s0,s0,a0
 8000912:	c622                	sw	s0,12(sp)
 8000914:	4605                	li	a2,1
 8000916:	852e                	mv	a0,a1
 8000918:	85a2                	mv	a1,s0
 800091a:	00000097          	auipc	ra,0x0
 800091e:	63a080e7          	jalr	1594(ra) # 0x8000f54
 8000922:	5532                	lw	a0,44(sp)
 8000924:	4412                	lw	s0,4(sp)
 8000926:	9522                	add	a0,a0,s0
 8000928:	ca2a                	sw	a0,20(sp)
 800092a:	4605                	li	a2,1
 800092c:	5592                	lw	a1,36(sp)
 800092e:	00000097          	auipc	ra,0x0
 8000932:	626080e7          	jalr	1574(ra) # 0x8000f54
 8000936:	00848533          	add	a0,s1,s0
 800093a:	c82a                	sw	a0,16(sp)
 800093c:	4605                	li	a2,1
 800093e:	45b2                	lw	a1,12(sp)
 8000940:	00000097          	auipc	ra,0x0
 8000944:	614080e7          	jalr	1556(ra) # 0x8000f54
 8000948:	8526                	mv	a0,s1
 800094a:	d226                	sw	s1,36(sp)
 800094c:	4482                	lw	s1,0(sp)
 800094e:	009505b3          	add	a1,a0,s1
 8000952:	c62e                	sw	a1,12(sp)
 8000954:	4605                	li	a2,1
 8000956:	4572                	lw	a0,28(sp)
 8000958:	00000097          	auipc	ra,0x0
 800095c:	5fc080e7          	jalr	1532(ra) # 0x8000f54
 8000960:	5432                	lw	s0,44(sp)
 8000962:	9426                	add	s0,s0,s1
 8000964:	4605                	li	a2,1
 8000966:	4562                	lw	a0,24(sp)
 8000968:	85a2                	mv	a1,s0
 800096a:	00000097          	auipc	ra,0x0
 800096e:	5ea080e7          	jalr	1514(ra) # 0x8000f54
 8000972:	4605                	li	a2,1
 8000974:	4552                	lw	a0,20(sp)
 8000976:	45b2                	lw	a1,12(sp)
 8000978:	00000097          	auipc	ra,0x0
 800097c:	5dc080e7          	jalr	1500(ra) # 0x8000f54
 8000980:	4605                	li	a2,1
 8000982:	4542                	lw	a0,16(sp)
 8000984:	85a2                	mv	a1,s0
 8000986:	00000097          	auipc	ra,0x0
 800098a:	5ce080e7          	jalr	1486(ra) # 0x8000f54
 800098e:	5702                	lw	a4,32(sp)
 8000990:	56b2                	lw	a3,44(sp)
 8000992:	01071593          	slli	a1,a4,0x10
 8000996:	fff68513          	addi	a0,a3,-1 # 0xe000efff
 800099a:	0005c363          	bltz	a1,0x80009a0
 800099e:	86aa                	mv	a3,a0
 80009a0:	5612                	lw	a2,36(sp)
 80009a2:	0605                	addi	a2,a2,1
 80009a4:	85c1                	srai	a1,a1,0x10
 80009a6:	0005a593          	slti	a1,a1,0
 80009aa:	15fd                	addi	a1,a1,-1
 80009ac:	8d6d                	and	a0,a0,a1
 80009ae:	40a60533          	sub	a0,a2,a0
 80009b2:	0506                	slli	a0,a0,0x1
 80009b4:	953a                	add	a0,a0,a4
 80009b6:	00150713          	addi	a4,a0,1
 80009ba:	b705                	j	0x80008da
 80009bc:	50e2                	lw	ra,56(sp)
 80009be:	5452                	lw	s0,52(sp)
 80009c0:	54c2                	lw	s1,48(sp)
 80009c2:	03c10113          	addi	sp,sp,60
 80009c6:	8082                	ret
 80009c8:	fdc10113          	addi	sp,sp,-36
 80009cc:	d006                	sw	ra,32(sp)
 80009ce:	ce22                	sw	s0,28(sp)
 80009d0:	cc26                	sw	s1,24(sp)
 80009d2:	872a                	mv	a4,a0
 80009d4:	6541                	lui	a0,0x10
 80009d6:	40e58633          	sub	a2,a1,a4
 80009da:	46d1                	li	a3,20
 80009dc:	fff50793          	addi	a5,a0,-1 # 0xffff
 80009e0:	01061513          	slli	a0,a2,0x10
 80009e4:	8dfd                	and	a1,a1,a5
 80009e6:	c23e                	sw	a5,4(sp)
 80009e8:	8ff9                	and	a5,a5,a4
 80009ea:	857d                	srai	a0,a0,0x1f
 80009ec:	8e29                	xor	a2,a2,a0
 80009ee:	c02e                	sw	a1,0(sp)
 80009f0:	00b7b5b3          	sltu	a1,a5,a1
 80009f4:	8e09                	sub	a2,a2,a0
 80009f6:	15fd                	addi	a1,a1,-1
 80009f8:	40c00533          	neg	a0,a2
 80009fc:	0015e593          	ori	a1,a1,1
 8000a00:	c62e                	sw	a1,12(sp)
 8000a02:	c832                	sw	a2,16(sp)
 8000a04:	8e91                	sub	a3,a3,a2
 8000a06:	ca36                	sw	a3,20(sp)
 8000a08:	0542                	slli	a0,a0,0x10
 8000a0a:	8541                	srai	a0,a0,0x10
 8000a0c:	c42a                	sw	a0,8(sp)
 8000a0e:	02600493          	li	s1,38
 8000a12:	4605                	li	a2,1
 8000a14:	8526                	mv	a0,s1
 8000a16:	85ba                	mv	a1,a4
 8000a18:	843a                	mv	s0,a4
 8000a1a:	00000097          	auipc	ra,0x0
 8000a1e:	53a080e7          	jalr	1338(ra) # 0x8000f54
 8000a22:	8722                	mv	a4,s0
 8000a24:	01049513          	slli	a0,s1,0x10
 8000a28:	8141                	srli	a0,a0,0x10
 8000a2a:	fc650513          	addi	a0,a0,-58
 8000a2e:	e511                	bnez	a0,0x8000a3a
 8000a30:	4512                	lw	a0,4(sp)
 8000a32:	8d79                	and	a0,a0,a4
 8000a34:	4582                	lw	a1,0(sp)
 8000a36:	02b50f63          	beq	a0,a1,0x8000a74
 8000a3a:	4452                	lw	s0,20(sp)
 8000a3c:	01041513          	slli	a0,s0,0x10
 8000a40:	01141593          	slli	a1,s0,0x11
 8000a44:	8541                	srai	a0,a0,0x10
 8000a46:	85c1                	srai	a1,a1,0x10
 8000a48:	4622                	lw	a2,8(sp)
 8000a4a:	00c5a5b3          	slt	a1,a1,a2
 8000a4e:	00b52513          	slti	a0,a0,11
 8000a52:	0015c613          	xori	a2,a1,1
 8000a56:	15fd                	addi	a1,a1,-1
 8000a58:	40a00533          	neg	a0,a0
 8000a5c:	46c2                	lw	a3,16(sp)
 8000a5e:	8df5                	and	a1,a1,a3
 8000a60:	94b2                	add	s1,s1,a2
 8000a62:	01457613          	andi	a2,a0,20
 8000a66:	46b2                	lw	a3,12(sp)
 8000a68:	8d75                	and	a0,a0,a3
 8000a6a:	8c0d                	sub	s0,s0,a1
 8000a6c:	9622                	add	a2,a2,s0
 8000a6e:	ca32                	sw	a2,20(sp)
 8000a70:	972a                	add	a4,a4,a0
 8000a72:	b745                	j	0x8000a12
 8000a74:	5082                	lw	ra,32(sp)
 8000a76:	4472                	lw	s0,28(sp)
 8000a78:	44e2                	lw	s1,24(sp)
 8000a7a:	02410113          	addi	sp,sp,36
 8000a7e:	8082                	ret
 8000a80:	1111                	addi	sp,sp,-28
 8000a82:	cc06                	sw	ra,24(sp)
 8000a84:	ca22                	sw	s0,20(sp)
 8000a86:	c826                	sw	s1,16(sp)
 8000a88:	c22e                	sw	a1,4(sp)
 8000a8a:	c432                	sw	a2,8(sp)
 8000a8c:	01061593          	slli	a1,a2,0x10
 8000a90:	85c1                	srai	a1,a1,0x10
 8000a92:	c02a                	sw	a0,0(sp)
 8000a94:	02b05763          	blez	a1,0x8000ac2
 8000a98:	4401                	li	s0,0
 8000a9a:	64c1                	lui	s1,0x10
 8000a9c:	14fd                	addi	s1,s1,-1 # 0xffff
 8000a9e:	8ee5                	and	a3,a3,s1
 8000aa0:	c636                	sw	a3,12(sp)
 8000aa2:	00947533          	and	a0,s0,s1
 8000aa6:	45b2                	lw	a1,12(sp)
 8000aa8:	00b57d63          	bgeu	a0,a1,0x8000ac2
 8000aac:	4592                	lw	a1,4(sp)
 8000aae:	95a2                	add	a1,a1,s0
 8000ab0:	4685                	li	a3,1
 8000ab2:	4502                	lw	a0,0(sp)
 8000ab4:	4622                	lw	a2,8(sp)
 8000ab6:	00000097          	auipc	ra,0x0
 8000aba:	41c080e7          	jalr	1052(ra) # 0x8000ed2
 8000abe:	0405                	addi	s0,s0,1
 8000ac0:	b7cd                	j	0x8000aa2
 8000ac2:	40e2                	lw	ra,24(sp)
 8000ac4:	4452                	lw	s0,20(sp)
 8000ac6:	44c2                	lw	s1,16(sp)
 8000ac8:	0171                	addi	sp,sp,28
 8000aca:	8082                	ret
 8000acc:	fd410113          	addi	sp,sp,-44
 8000ad0:	d406                	sw	ra,40(sp)
 8000ad2:	d222                	sw	s0,36(sp)
 8000ad4:	d026                	sw	s1,32(sp)
 8000ad6:	c636                	sw	a3,12(sp)
 8000ad8:	c432                	sw	a2,8(sp)
 8000ada:	c22e                	sw	a1,4(sp)
 8000adc:	c02a                	sw	a0,0(sp)
 8000ade:	4601                	li	a2,0
 8000ae0:	4521                	li	a0,8
 8000ae2:	06a60e63          	beq	a2,a0,0x8000b5e
 8000ae6:	4481                	li	s1,0
 8000ae8:	08001537          	lui	a0,0x8001
 8000aec:	23750513          	addi	a0,a0,567 # 0x8001237
 8000af0:	9532                	add	a0,a0,a2
 8000af2:	00054503          	lbu	a0,0(a0)
 8000af6:	ca2a                	sw	a0,20(sp)
 8000af8:	08001537          	lui	a0,0x8001
 8000afc:	22f50513          	addi	a0,a0,559 # 0x800122f
 8000b00:	9532                	add	a0,a0,a2
 8000b02:	c82a                	sw	a0,16(sp)
 8000b04:	cc32                	sw	a2,24(sp)
 8000b06:	451d                	li	a0,7
 8000b08:	04956963          	bltu	a0,s1,0x8000b5a
 8000b0c:	0074c513          	xori	a0,s1,7
 8000b10:	4585                	li	a1,1
 8000b12:	00a59433          	sll	s0,a1,a0
 8000b16:	4552                	lw	a0,20(sp)
 8000b18:	8d61                	and	a0,a0,s0
 8000b1a:	cd15                	beqz	a0,0x8000b56
 8000b1c:	0ff4f593          	zext.b	a1,s1
 8000b20:	0868                	addi	a0,sp,28
 8000b22:	4662                	lw	a2,24(sp)
 8000b24:	46b2                	lw	a3,12(sp)
 8000b26:	00000097          	auipc	ra,0x0
 8000b2a:	48e080e7          	jalr	1166(ra) # 0x8000fb4
 8000b2e:	01c11503          	lh	a0,28(sp)
 8000b32:	01e11583          	lh	a1,30(sp)
 8000b36:	4642                	lw	a2,16(sp)
 8000b38:	00064603          	lbu	a2,0(a2)
 8000b3c:	4682                	lw	a3,0(sp)
 8000b3e:	9536                	add	a0,a0,a3
 8000b40:	4692                	lw	a3,4(sp)
 8000b42:	95b6                	add	a1,a1,a3
 8000b44:	8e61                	and	a2,a2,s0
 8000b46:	00c03633          	snez	a2,a2
 8000b4a:	46a2                	lw	a3,8(sp)
 8000b4c:	00000097          	auipc	ra,0x0
 8000b50:	498080e7          	jalr	1176(ra) # 0x8000fe4
 8000b54:	4662                	lw	a2,24(sp)
 8000b56:	0485                	addi	s1,s1,1
 8000b58:	b77d                	j	0x8000b06
 8000b5a:	0605                	addi	a2,a2,1
 8000b5c:	b751                	j	0x8000ae0
 8000b5e:	50a2                	lw	ra,40(sp)
 8000b60:	5412                	lw	s0,36(sp)
 8000b62:	5482                	lw	s1,32(sp)
 8000b64:	02c10113          	addi	sp,sp,44
 8000b68:	8082                	ret
 8000b6a:	1151                	addi	sp,sp,-12
 8000b6c:	c406                	sw	ra,8(sp)
 8000b6e:	c222                	sw	s0,4(sp)
 8000b70:	842a                	mv	s0,a0
 8000b72:	058e                	slli	a1,a1,0x3
 8000b74:	850a                	mv	a0,sp
 8000b76:	00000097          	auipc	ra,0x0
 8000b7a:	4d2080e7          	jalr	1234(ra) # 0x8001048
 8000b7e:	00011503          	lh	a0,0(sp)
 8000b82:	00211583          	lh	a1,2(sp)
 8000b86:	00a41023          	sh	a0,0(s0)
 8000b8a:	00b41123          	sh	a1,2(s0)
 8000b8e:	40a2                	lw	ra,8(sp)
 8000b90:	4412                	lw	s0,4(sp)
 8000b92:	0131                	addi	sp,sp,12
 8000b94:	8082                	ret
 8000b96:	fac10113          	addi	sp,sp,-84
 8000b9a:	c886                	sw	ra,80(sp)
 8000b9c:	c6a2                	sw	s0,76(sp)
 8000b9e:	c4a6                	sw	s1,72(sp)
 8000ba0:	843e                	mv	s0,a5
 8000ba2:	84ba                	mv	s1,a4
 8000ba4:	cc36                	sw	a3,24(sp)
 8000ba6:	c032                	sw	a2,0(sp)
 8000ba8:	ca2e                	sw	a1,20(sp)
 8000baa:	45d6                	lw	a1,84(sp)
 8000bac:	de2e                	sw	a1,60(sp)
 8000bae:	c82a                	sw	a0,16(sp)
 8000bb0:	0088                	addi	a0,sp,64
 8000bb2:	45a1                	li	a1,8
 8000bb4:	863e                	mv	a2,a5
 8000bb6:	00000097          	auipc	ra,0x0
 8000bba:	492080e7          	jalr	1170(ra) # 0x8001048
 8000bbe:	04011503          	lh	a0,64(sp)
 8000bc2:	04211583          	lh	a1,66(sp)
 8000bc6:	0014c693          	xori	a3,s1,1
 8000bca:	d236                	sw	a3,36(sp)
 8000bcc:	4481                	li	s1,0
 8000bce:	d422                	sw	s0,40(sp)
 8000bd0:	880d                	andi	s0,s0,3
 8000bd2:	c622                	sw	s0,12(sp)
 8000bd4:	471d                	li	a4,7
 8000bd6:	08000793          	li	a5,128
 8000bda:	56f2                	lw	a3,60(sp)
 8000bdc:	8a85                	andi	a3,a3,1
 8000bde:	dc36                	sw	a3,56(sp)
 8000be0:	40a00533          	neg	a0,a0
 8000be4:	40b005b3          	neg	a1,a1
 8000be8:	0542                	slli	a0,a0,0x10
 8000bea:	05c2                	slli	a1,a1,0x10
 8000bec:	8541                	srai	a0,a0,0x10
 8000bee:	c42a                	sw	a0,8(sp)
 8000bf0:	85c1                	srai	a1,a1,0x10
 8000bf2:	c22e                	sw	a1,4(sp)
 8000bf4:	4562                	lw	a0,24(sp)
 8000bf6:	0ea48863          	beq	s1,a0,0x8000ce6
 8000bfa:	00349513          	slli	a0,s1,0x3
 8000bfe:	45b2                	lw	a1,12(sp)
 8000c00:	cd81                	beqz	a1,0x8000c18
 8000c02:	4685                	li	a3,1
 8000c04:	02d58263          	beq	a1,a3,0x8000c28
 8000c08:	fff4c513          	not	a0,s1
 8000c0c:	4689                	li	a3,2
 8000c0e:	00d59a63          	bne	a1,a3,0x8000c22
 8000c12:	45e2                	lw	a1,24(sp)
 8000c14:	952e                	add	a0,a0,a1
 8000c16:	050e                	slli	a0,a0,0x3
 8000c18:	45c2                	lw	a1,16(sp)
 8000c1a:	95aa                	add	a1,a1,a0
 8000c1c:	4552                	lw	a0,20(sp)
 8000c1e:	d82a                	sw	a0,48(sp)
 8000c20:	a801                	j	0x8000c30
 8000c22:	45e2                	lw	a1,24(sp)
 8000c24:	952e                	add	a0,a0,a1
 8000c26:	050e                	slli	a0,a0,0x3
 8000c28:	45d2                	lw	a1,20(sp)
 8000c2a:	952e                	add	a0,a0,a1
 8000c2c:	d82a                	sw	a0,48(sp)
 8000c2e:	45c2                	lw	a1,16(sp)
 8000c30:	d62e                	sw	a1,44(sp)
 8000c32:	01059513          	slli	a0,a1,0x10
 8000c36:	8541                	srai	a0,a0,0x10
 8000c38:	07f00593          	li	a1,127
 8000c3c:	0aa5c563          	blt	a1,a0,0x8000ce6
 8000c40:	55c2                	lw	a1,48(sp)
 8000c42:	05c2                	slli	a1,a1,0x10
 8000c44:	85c1                	srai	a1,a1,0x10
 8000c46:	03f00693          	li	a3,63
 8000c4a:	08b6ce63          	blt	a3,a1,0x8000ce6
 8000c4e:	46a2                	lw	a3,8(sp)
 8000c50:	08a6d963          	bge	a3,a0,0x8000ce2
 8000c54:	4512                	lw	a0,4(sp)
 8000c56:	08b55663          	bge	a0,a1,0x8000ce2
 8000c5a:	4601                	li	a2,0
 8000c5c:	4502                	lw	a0,0(sp)
 8000c5e:	9526                	add	a0,a0,s1
 8000c60:	00054503          	lbu	a0,0(a0)
 8000c64:	050e                	slli	a0,a0,0x3
 8000c66:	ce2a                	sw	a0,28(sp)
 8000c68:	d026                	sw	s1,32(sp)
 8000c6a:	4521                	li	a0,8
 8000c6c:	06a60b63          	beq	a2,a0,0x8000ce2
 8000c70:	4572                	lw	a0,28(sp)
 8000c72:	9532                	add	a0,a0,a2
 8000c74:	080015b7          	lui	a1,0x8001
 8000c78:	23f58593          	addi	a1,a1,575 # 0x800123f
 8000c7c:	952e                	add	a0,a0,a1
 8000c7e:	00054683          	lbu	a3,0(a0)
 8000c82:	4481                	li	s1,0
 8000c84:	da32                	sw	a2,52(sp)
 8000c86:	04076b63          	bltu	a4,zero,0x8000cdc
 8000c8a:	0097d533          	srl	a0,a5,s1
 8000c8e:	8d75                	and	a0,a0,a3
 8000c90:	e119                	bnez	a0,0x8000c96
 8000c92:	55e2                	lw	a1,56(sp)
 8000c94:	c1a9                	beqz	a1,0x8000cd6
 8000c96:	00a03533          	snez	a0,a0
 8000c9a:	5412                	lw	s0,36(sp)
 8000c9c:	8d21                	xor	a0,a0,s0
 8000c9e:	de2a                	sw	a0,60(sp)
 8000ca0:	0ff4f593          	zext.b	a1,s1
 8000ca4:	00c8                	addi	a0,sp,68
 8000ca6:	8436                	mv	s0,a3
 8000ca8:	56a2                	lw	a3,40(sp)
 8000caa:	00000097          	auipc	ra,0x0
 8000cae:	30a080e7          	jalr	778(ra) # 0x8000fb4
 8000cb2:	04411503          	lh	a0,68(sp)
 8000cb6:	04611583          	lh	a1,70(sp)
 8000cba:	5632                	lw	a2,44(sp)
 8000cbc:	9532                	add	a0,a0,a2
 8000cbe:	5642                	lw	a2,48(sp)
 8000cc0:	95b2                	add	a1,a1,a2
 8000cc2:	5672                	lw	a2,60(sp)
 8000cc4:	00000097          	auipc	ra,0x0
 8000cc8:	290080e7          	jalr	656(ra) # 0x8000f54
 8000ccc:	86a2                	mv	a3,s0
 8000cce:	5652                	lw	a2,52(sp)
 8000cd0:	08000793          	li	a5,128
 8000cd4:	471d                	li	a4,7
 8000cd6:	0485                	addi	s1,s1,1
 8000cd8:	fa9779e3          	bgeu	a4,s1,0x8000c8a
 8000cdc:	0605                	addi	a2,a2,1
 8000cde:	5482                	lw	s1,32(sp)
 8000ce0:	b769                	j	0x8000c6a
 8000ce2:	0485                	addi	s1,s1,1
 8000ce4:	bf01                	j	0x8000bf4
 8000ce6:	40c6                	lw	ra,80(sp)
 8000ce8:	4436                	lw	s0,76(sp)
 8000cea:	44a6                	lw	s1,72(sp)
 8000cec:	05410113          	addi	sp,sp,84
 8000cf0:	8082                	ret
 8000cf2:	1111                	addi	sp,sp,-28
 8000cf4:	cc06                	sw	ra,24(sp)
 8000cf6:	ca22                	sw	s0,20(sp)
 8000cf8:	c826                	sw	s1,16(sp)
 8000cfa:	c22e                	sw	a1,4(sp)
 8000cfc:	c02a                	sw	a0,0(sp)
 8000cfe:	4501                	li	a0,0
 8000d00:	45a1                	li	a1,8
 8000d02:	06b50063          	beq	a0,a1,0x8000d62
 8000d06:	84aa                	mv	s1,a0
 8000d08:	080015b7          	lui	a1,0x8001
 8000d0c:	22758593          	addi	a1,a1,551 # 0x8001227
 8000d10:	952e                	add	a0,a0,a1
 8000d12:	00054503          	lbu	a0,0(a0)
 8000d16:	c42a                	sw	a0,8(sp)
 8000d18:	4401                	li	s0,0
 8000d1a:	451d                	li	a0,7
 8000d1c:	04856063          	bltu	a0,s0,0x8000d5c
 8000d20:	0ff47593          	zext.b	a1,s0
 8000d24:	0068                	addi	a0,sp,12
 8000d26:	8626                	mv	a2,s1
 8000d28:	4692                	lw	a3,4(sp)
 8000d2a:	00000097          	auipc	ra,0x0
 8000d2e:	28a080e7          	jalr	650(ra) # 0x8000fb4
 8000d32:	00c11503          	lh	a0,12(sp)
 8000d36:	00e11583          	lh	a1,14(sp)
 8000d3a:	00744613          	xori	a2,s0,7
 8000d3e:	46a2                	lw	a3,8(sp)
 8000d40:	00c6d633          	srl	a2,a3,a2
 8000d44:	4682                	lw	a3,0(sp)
 8000d46:	9536                	add	a0,a0,a3
 8000d48:	02c58593          	addi	a1,a1,44
 8000d4c:	8a05                	andi	a2,a2,1
 8000d4e:	4681                	li	a3,0
 8000d50:	00000097          	auipc	ra,0x0
 8000d54:	294080e7          	jalr	660(ra) # 0x8000fe4
 8000d58:	0405                	addi	s0,s0,1
 8000d5a:	b7c1                	j	0x8000d1a
 8000d5c:	00148513          	addi	a0,s1,1
 8000d60:	b745                	j	0x8000d00
 8000d62:	40e2                	lw	ra,24(sp)
 8000d64:	4452                	lw	s0,20(sp)
 8000d66:	44c2                	lw	s1,16(sp)
 8000d68:	0171                	addi	sp,sp,28
 8000d6a:	8082                	ret
 8000d6c:	00154603          	lbu	a2,1(a0)
 8000d70:	00054503          	lbu	a0,0(a0)
 8000d74:	0622                	slli	a2,a2,0x8
 8000d76:	8d51                	or	a0,a0,a2
 8000d78:	00357613          	andi	a2,a0,3
 8000d7c:	ca09                	beqz	a2,0x8000d8e
 8000d7e:	4689                	li	a3,2
 8000d80:	00d61c63          	bne	a2,a3,0x8000d98
 8000d84:	40011637          	lui	a2,0x40011
 8000d88:	40060613          	addi	a2,a2,1024 # 0x40011400
 8000d8c:	a801                	j	0x8000d9c
 8000d8e:	40011637          	lui	a2,0x40011
 8000d92:	80060613          	addi	a2,a2,-2048 # 0x40010800
 8000d96:	a019                	j	0x8000d9c
 8000d98:	40011637          	lui	a2,0x40011
 8000d9c:	8119                	srli	a0,a0,0x6
 8000d9e:	46bd                	li	a3,15
 8000da0:	89bd                	andi	a1,a1,15
 8000da2:	4218                	lw	a4,0(a2)
 8000da4:	8971                	andi	a0,a0,28
 8000da6:	00a696b3          	sll	a3,a3,a0
 8000daa:	00a59533          	sll	a0,a1,a0
 8000dae:	fff6c593          	not	a1,a3
 8000db2:	8df9                	and	a1,a1,a4
 8000db4:	8d4d                	or	a0,a0,a1
 8000db6:	c208                	sw	a0,0(a2)
 8000db8:	8082                	ret
 8000dba:	1161                	addi	sp,sp,-8
 8000dbc:	c222                	sw	s0,4(sp)
 8000dbe:	c026                	sw	s1,0(sp)
 8000dc0:	76a1                	lui	a3,0xfffe8
 8000dc2:	400054b7          	lui	s1,0x40005
 8000dc6:	95f68693          	addi	a3,a3,-1697 # 0xfffe795f
 8000dca:	577d                	li	a4,-1
 8000dcc:	4184d403          	lhu	s0,1048(s1) # 0x40005418
 8000dd0:	87b6                	mv	a5,a3
 8000dd2:	8809                	andi	s0,s0,2
 8000dd4:	0685                	addi	a3,a3,1
 8000dd6:	c019                	beqz	s0,0x8000ddc
 8000dd8:	fee79ae3          	bne	a5,a4,0x8000dcc
 8000ddc:	cef1                	beqz	a3,0x8000eb8
 8000dde:	40049683          	lh	a3,1024(s1)
 8000de2:	7721                	lui	a4,0xfffe8
 8000de4:	1006e693          	ori	a3,a3,256
 8000de8:	40d49023          	sh	a3,1024(s1)
 8000dec:	000306b7          	lui	a3,0x30
 8000df0:	96070713          	addi	a4,a4,-1696 # 0xfffe7960
 8000df4:	00168613          	addi	a2,a3,1 # 0x30001
 8000df8:	4144d783          	lhu	a5,1044(s1)
 8000dfc:	41849403          	lh	s0,1048(s1)
 8000e00:	0442                	slli	s0,s0,0x10
 8000e02:	8fc1                	or	a5,a5,s0
 8000e04:	00c7f6b3          	and	a3,a5,a2
 8000e08:	87ba                	mv	a5,a4
 8000e0a:	00c68563          	beq	a3,a2,0x8000e14
 8000e0e:	00178713          	addi	a4,a5,1
 8000e12:	f3fd                	bnez	a5,0x8000df8
 8000e14:	c7c5                	beqz	a5,0x8000ebc
 8000e16:	00070637          	lui	a2,0x70
 8000e1a:	07800693          	li	a3,120
 8000e1e:	40d49823          	sh	a3,1040(s1)
 8000e22:	7721                	lui	a4,0xfffe8
 8000e24:	08260693          	addi	a3,a2,130 # 0x70082
 8000e28:	96070713          	addi	a4,a4,-1696 # 0xfffe7960
 8000e2c:	4144d603          	lhu	a2,1044(s1)
 8000e30:	41849783          	lh	a5,1048(s1)
 8000e34:	07c2                	slli	a5,a5,0x10
 8000e36:	8e5d                	or	a2,a2,a5
 8000e38:	8e75                	and	a2,a2,a3
 8000e3a:	87ba                	mv	a5,a4
 8000e3c:	00d60563          	beq	a2,a3,0x8000e46
 8000e40:	00178713          	addi	a4,a5,1
 8000e44:	f7e5                	bnez	a5,0x8000e2c
 8000e46:	cfad                	beqz	a5,0x8000ec0
 8000e48:	4381                	li	t2,0
 8000e4a:	7621                	lui	a2,0xfffe8
 8000e4c:	95f60293          	addi	t0,a2,-1697 # 0xfffe795f
 8000e50:	57fd                	li	a5,-1
 8000e52:	c58d                	beqz	a1,0x8000e7c
 8000e54:	00750633          	add	a2,a0,t2
 8000e58:	00064303          	lbu	t1,0(a2)
 8000e5c:	8716                	mv	a4,t0
 8000e5e:	4144d603          	lhu	a2,1044(s1)
 8000e62:	843a                	mv	s0,a4
 8000e64:	08067613          	andi	a2,a2,128
 8000e68:	0705                	addi	a4,a4,1
 8000e6a:	e219                	bnez	a2,0x8000e70
 8000e6c:	fef419e3          	bne	s0,a5,0x8000e5e
 8000e70:	cb31                	beqz	a4,0x8000ec4
 8000e72:	40649823          	sh	t1,1040(s1)
 8000e76:	0385                	addi	t2,t2,1
 8000e78:	fcb39ee3          	bne	t2,a1,0x8000e54
 8000e7c:	7521                	lui	a0,0xfffe8
 8000e7e:	0689                	addi	a3,a3,2
 8000e80:	00070637          	lui	a2,0x70
 8000e84:	96050593          	addi	a1,a0,-1696 # 0xfffe7960
 8000e88:	08460513          	addi	a0,a2,132 # 0x70084
 8000e8c:	4144d603          	lhu	a2,1044(s1)
 8000e90:	41849703          	lh	a4,1048(s1)
 8000e94:	0742                	slli	a4,a4,0x10
 8000e96:	8e59                	or	a2,a2,a4
 8000e98:	8e75                	and	a2,a2,a3
 8000e9a:	872e                	mv	a4,a1
 8000e9c:	00a60563          	beq	a2,a0,0x8000ea6
 8000ea0:	00170593          	addi	a1,a4,1
 8000ea4:	f765                	bnez	a4,0x8000e8c
 8000ea6:	c30d                	beqz	a4,0x8000ec8
 8000ea8:	4501                	li	a0,0
 8000eaa:	40049583          	lh	a1,1024(s1)
 8000eae:	2005e593          	ori	a1,a1,512
 8000eb2:	40b49023          	sh	a1,1024(s1)
 8000eb6:	a811                	j	0x8000eca
 8000eb8:	4505                	li	a0,1
 8000eba:	a801                	j	0x8000eca
 8000ebc:	4509                	li	a0,2
 8000ebe:	a031                	j	0x8000eca
 8000ec0:	450d                	li	a0,3
 8000ec2:	a021                	j	0x8000eca
 8000ec4:	4511                	li	a0,4
 8000ec6:	a011                	j	0x8000eca
 8000ec8:	4515                	li	a0,5
 8000eca:	4412                	lw	s0,4(sp)
 8000ecc:	4482                	lw	s1,0(sp)
 8000ece:	0121                	addi	sp,sp,8
 8000ed0:	8082                	ret
 8000ed2:	1121                	addi	sp,sp,-24
 8000ed4:	ca06                	sw	ra,20(sp)
 8000ed6:	c822                	sw	s0,16(sp)
 8000ed8:	c626                	sw	s1,12(sp)
 8000eda:	c436                	sw	a3,8(sp)
 8000edc:	c22e                	sw	a1,4(sp)
 8000ede:	0642                	slli	a2,a2,0x10
 8000ee0:	41065493          	srai	s1,a2,0x10
 8000ee4:	c02a                	sw	a0,0(sp)
 8000ee6:	02905263          	blez	s1,0x8000f0a
 8000eea:	4401                	li	s0,0
 8000eec:	01041513          	slli	a0,s0,0x10
 8000ef0:	8541                	srai	a0,a0,0x10
 8000ef2:	00955c63          	bge	a0,s1,0x8000f0a
 8000ef6:	4502                	lw	a0,0(sp)
 8000ef8:	9522                	add	a0,a0,s0
 8000efa:	4592                	lw	a1,4(sp)
 8000efc:	4622                	lw	a2,8(sp)
 8000efe:	00000097          	auipc	ra,0x0
 8000f02:	056080e7          	jalr	86(ra) # 0x8000f54
 8000f06:	0405                	addi	s0,s0,1
 8000f08:	b7d5                	j	0x8000eec
 8000f0a:	40d2                	lw	ra,20(sp)
 8000f0c:	4442                	lw	s0,16(sp)
 8000f0e:	44b2                	lw	s1,12(sp)
 8000f10:	0161                	addi	sp,sp,24
 8000f12:	8082                	ret
 8000f14:	1131                	addi	sp,sp,-20
 8000f16:	c806                	sw	ra,16(sp)
 8000f18:	c622                	sw	s0,12(sp)
 8000f1a:	c426                	sw	s1,8(sp)
 8000f1c:	c22e                	sw	a1,4(sp)
 8000f1e:	0642                	slli	a2,a2,0x10
 8000f20:	41065413          	srai	s0,a2,0x10
 8000f24:	c02a                	sw	a0,0(sp)
 8000f26:	02805263          	blez	s0,0x8000f4a
 8000f2a:	4481                	li	s1,0
 8000f2c:	01049513          	slli	a0,s1,0x10
 8000f30:	8541                	srai	a0,a0,0x10
 8000f32:	00855c63          	bge	a0,s0,0x8000f4a
 8000f36:	4592                	lw	a1,4(sp)
 8000f38:	95a6                	add	a1,a1,s1
 8000f3a:	4605                	li	a2,1
 8000f3c:	4502                	lw	a0,0(sp)
 8000f3e:	00000097          	auipc	ra,0x0
 8000f42:	016080e7          	jalr	22(ra) # 0x8000f54
 8000f46:	0485                	addi	s1,s1,1
 8000f48:	b7d5                	j	0x8000f2c
 8000f4a:	40c2                	lw	ra,16(sp)
 8000f4c:	4432                	lw	s0,12(sp)
 8000f4e:	44a2                	lw	s1,8(sp)
 8000f50:	0151                	addi	sp,sp,20
 8000f52:	8082                	ret
 8000f54:	01051693          	slli	a3,a0,0x10
 8000f58:	0406cd63          	bltz	a3,0x8000fb2
 8000f5c:	01059713          	slli	a4,a1,0x10
 8000f60:	04074963          	bltz	a4,0x8000fb2
 8000f64:	82c1                	srli	a3,a3,0x10
 8000f66:	07f00793          	li	a5,127
 8000f6a:	04d7e463          	bltu	a5,a3,0x8000fb2
 8000f6e:	8341                	srli	a4,a4,0x10
 8000f70:	03f00693          	li	a3,63
 8000f74:	02e6ef63          	bltu	a3,a4,0x8000fb2
 8000f78:	00459693          	slli	a3,a1,0x4
 8000f7c:	0075f713          	andi	a4,a1,7
 8000f80:	3806f593          	andi	a1,a3,896
 8000f84:	8d4d                	or	a0,a0,a1
 8000f86:	0542                	slli	a0,a0,0x10
 8000f88:	8141                	srli	a0,a0,0x10
 8000f8a:	200005b7          	lui	a1,0x20000
 8000f8e:	00058593          	mv	a1,a1
 8000f92:	952e                	add	a0,a0,a1
 8000f94:	00054583          	lbu	a1,0(a0)
 8000f98:	4685                	li	a3,1
 8000f9a:	00167793          	andi	a5,a2,1
 8000f9e:	00e69633          	sll	a2,a3,a4
 8000fa2:	e789                	bnez	a5,0x8000fac
 8000fa4:	fff64613          	not	a2,a2
 8000fa8:	8df1                	and	a1,a1,a2
 8000faa:	a011                	j	0x8000fae
 8000fac:	8dd1                	or	a1,a1,a2
 8000fae:	00b50023          	sb	a1,0(a0)
 8000fb2:	8082                	ret
 8000fb4:	8a8d                	andi	a3,a3,3
 8000fb6:	ca99                	beqz	a3,0x8000fcc
 8000fb8:	4705                	li	a4,1
 8000fba:	00e68e63          	beq	a3,a4,0x8000fd6
 8000fbe:	0075c593          	xori	a1,a1,7
 8000fc2:	4709                	li	a4,2
 8000fc4:	00e69b63          	bne	a3,a4,0x8000fda
 8000fc8:	00764613          	xori	a2,a2,7
 8000fcc:	00b51023          	sh	a1,0(a0)
 8000fd0:	00c51123          	sh	a2,2(a0)
 8000fd4:	8082                	ret
 8000fd6:	00764613          	xori	a2,a2,7
 8000fda:	00c51023          	sh	a2,0(a0)
 8000fde:	00b51123          	sh	a1,2(a0)
 8000fe2:	8082                	ret
 8000fe4:	01051713          	slli	a4,a0,0x10
 8000fe8:	04074f63          	bltz	a4,0x8001046
 8000fec:	01059793          	slli	a5,a1,0x10
 8000ff0:	0407cb63          	bltz	a5,0x8001046
 8000ff4:	01075293          	srli	t0,a4,0x10
 8000ff8:	07f00713          	li	a4,127
 8000ffc:	04576563          	bltu	a4,t0,0x8001046
 8001000:	83c1                	srli	a5,a5,0x10
 8001002:	03f00713          	li	a4,63
 8001006:	04f76063          	bltu	a4,a5,0x8001046
 800100a:	00459713          	slli	a4,a1,0x4
 800100e:	0075f793          	andi	a5,a1,7
 8001012:	38077593          	andi	a1,a4,896
 8001016:	8d4d                	or	a0,a0,a1
 8001018:	200005b7          	lui	a1,0x20000
 800101c:	00058593          	mv	a1,a1
 8001020:	0542                	slli	a0,a0,0x10
 8001022:	8141                	srli	a0,a0,0x10
 8001024:	952e                	add	a0,a0,a1
 8001026:	8e35                	xor	a2,a2,a3
 8001028:	00054583          	lbu	a1,0(a0)
 800102c:	4685                	li	a3,1
 800102e:	00167713          	andi	a4,a2,1
 8001032:	00f69633          	sll	a2,a3,a5
 8001036:	e709                	bnez	a4,0x8001040
 8001038:	fff64613          	not	a2,a2
 800103c:	8df1                	and	a1,a1,a2
 800103e:	a011                	j	0x8001042
 8001040:	8dd1                	or	a1,a1,a2
 8001042:	00b50023          	sb	a1,0(a0)
 8001046:	8082                	ret
 8001048:	8a0d                	andi	a2,a2,3
 800104a:	ca09                	beqz	a2,0x800105c
 800104c:	4685                	li	a3,1
 800104e:	00d60563          	beq	a2,a3,0x8001058
 8001052:	468d                	li	a3,3
 8001054:	00d61463          	bne	a2,a3,0x800105c
 8001058:	4621                	li	a2,8
 800105a:	a019                	j	0x8001060
 800105c:	862e                	mv	a2,a1
 800105e:	45a1                	li	a1,8
 8001060:	00c51023          	sh	a2,0(a0)
 8001064:	00b51123          	sh	a1,2(a0)
 8001068:	8082                	ret
 800106a:	1161                	addi	sp,sp,-8
 800106c:	c206                	sw	ra,4(sp)
 800106e:	c022                	sw	s0,0(sp)
 8001070:	00a5c633          	xor	a2,a1,a0
 8001074:	41f55693          	srai	a3,a0,0x1f
 8001078:	8d35                	xor	a0,a0,a3
 800107a:	8d15                	sub	a0,a0,a3
 800107c:	41f5d693          	srai	a3,a1,0x1f
 8001080:	41f65413          	srai	s0,a2,0x1f
 8001084:	8db5                	xor	a1,a1,a3
 8001086:	8d95                	sub	a1,a1,a3
 8001088:	00000097          	auipc	ra,0x0
 800108c:	014080e7          	jalr	20(ra) # 0x800109c
 8001090:	8d21                	xor	a0,a0,s0
 8001092:	8d01                	sub	a0,a0,s0
 8001094:	4092                	lw	ra,4(sp)
 8001096:	4402                	lw	s0,0(sp)
 8001098:	0121                	addi	sp,sp,8
 800109a:	8082                	ret
 800109c:	4601                	li	a2,0
 800109e:	12058863          	beqz	a1,0x80011ce
 80010a2:	12050663          	beqz	a0,0x80011ce
 80010a6:	02000613          	li	a2,32
 80010aa:	02000693          	li	a3,32
 80010ae:	c1b5                	beqz	a1,0x8001112
 80010b0:	0015d693          	srli	a3,a1,0x1
 80010b4:	55555737          	lui	a4,0x55555
 80010b8:	8ecd                	or	a3,a3,a1
 80010ba:	55570713          	addi	a4,a4,1365 # 0x55555555
 80010be:	0026d793          	srli	a5,a3,0x2
 80010c2:	8edd                	or	a3,a3,a5
 80010c4:	0046d793          	srli	a5,a3,0x4
 80010c8:	8edd                	or	a3,a3,a5
 80010ca:	0086d793          	srli	a5,a3,0x8
 80010ce:	8edd                	or	a3,a3,a5
 80010d0:	0106d793          	srli	a5,a3,0x10
 80010d4:	8edd                	or	a3,a3,a5
 80010d6:	fff6c693          	not	a3,a3
 80010da:	0016d793          	srli	a5,a3,0x1
 80010de:	8f7d                	and	a4,a4,a5
 80010e0:	333337b7          	lui	a5,0x33333
 80010e4:	33378793          	addi	a5,a5,819 # 0x33333333
 80010e8:	8e99                	sub	a3,a3,a4
 80010ea:	00f6f733          	and	a4,a3,a5
 80010ee:	8289                	srli	a3,a3,0x2
 80010f0:	8efd                	and	a3,a3,a5
 80010f2:	0f0f17b7          	lui	a5,0xf0f1
 80010f6:	96ba                	add	a3,a3,a4
 80010f8:	0046d713          	srli	a4,a3,0x4
 80010fc:	96ba                	add	a3,a3,a4
 80010fe:	f0f78713          	addi	a4,a5,-241 # 0xf0f0f0f
 8001102:	8ef9                	and	a3,a3,a4
 8001104:	00869713          	slli	a4,a3,0x8
 8001108:	96ba                	add	a3,a3,a4
 800110a:	01069713          	slli	a4,a3,0x10
 800110e:	96ba                	add	a3,a3,a4
 8001110:	82e1                	srli	a3,a3,0x18
 8001112:	c135                	beqz	a0,0x8001176
 8001114:	00155613          	srli	a2,a0,0x1
 8001118:	55555737          	lui	a4,0x55555
 800111c:	8e49                	or	a2,a2,a0
 800111e:	55570713          	addi	a4,a4,1365 # 0x55555555
 8001122:	00265793          	srli	a5,a2,0x2
 8001126:	8e5d                	or	a2,a2,a5
 8001128:	00465793          	srli	a5,a2,0x4
 800112c:	8e5d                	or	a2,a2,a5
 800112e:	00865793          	srli	a5,a2,0x8
 8001132:	8e5d                	or	a2,a2,a5
 8001134:	01065793          	srli	a5,a2,0x10
 8001138:	8e5d                	or	a2,a2,a5
 800113a:	fff64613          	not	a2,a2
 800113e:	00165793          	srli	a5,a2,0x1
 8001142:	8f7d                	and	a4,a4,a5
 8001144:	333337b7          	lui	a5,0x33333
 8001148:	33378793          	addi	a5,a5,819 # 0x33333333
 800114c:	8e19                	sub	a2,a2,a4
 800114e:	00f67733          	and	a4,a2,a5
 8001152:	8209                	srli	a2,a2,0x2
 8001154:	8e7d                	and	a2,a2,a5
 8001156:	0f0f17b7          	lui	a5,0xf0f1
 800115a:	963a                	add	a2,a2,a4
 800115c:	00465713          	srli	a4,a2,0x4
 8001160:	963a                	add	a2,a2,a4
 8001162:	f0f78713          	addi	a4,a5,-241 # 0xf0f0f0f
 8001166:	8e79                	and	a2,a2,a4
 8001168:	00861713          	slli	a4,a2,0x8
 800116c:	963a                	add	a2,a2,a4
 800116e:	01061713          	slli	a4,a2,0x10
 8001172:	963a                	add	a2,a2,a4
 8001174:	8261                	srli	a2,a2,0x18
 8001176:	40c687b3          	sub	a5,a3,a2
 800117a:	477d                	li	a4,31
 800117c:	00f77463          	bgeu	a4,a5,0x8001184
 8001180:	4601                	li	a2,0
 8001182:	a0b1                	j	0x80011ce
 8001184:	00e79463          	bne	a5,a4,0x800118c
 8001188:	862a                	mv	a2,a0
 800118a:	a091                	j	0x80011ce
 800118c:	4301                	li	t1,0
 800118e:	00178293          	addi	t0,a5,1
 8001192:	01f7c793          	xori	a5,a5,31
 8001196:	00f51733          	sll	a4,a0,a5
 800119a:	00555533          	srl	a0,a0,t0
 800119e:	fff6c693          	not	a3,a3
 80011a2:	9636                	add	a2,a2,a3
 80011a4:	00171693          	slli	a3,a4,0x1
 80011a8:	c20d                	beqz	a2,0x80011ca
 80011aa:	01f75793          	srli	a5,a4,0x1f
 80011ae:	0506                	slli	a0,a0,0x1
 80011b0:	0066e733          	or	a4,a3,t1
 80011b4:	8d5d                	or	a0,a0,a5
 80011b6:	fff54693          	not	a3,a0
 80011ba:	96ae                	add	a3,a3,a1
 80011bc:	01f6d313          	srli	t1,a3,0x1f
 80011c0:	86fd                	srai	a3,a3,0x1f
 80011c2:	8eed                	and	a3,a3,a1
 80011c4:	8d15                	sub	a0,a0,a3
 80011c6:	0605                	addi	a2,a2,1
 80011c8:	bff1                	j	0x80011a4
 80011ca:	0066e633          	or	a2,a3,t1
 80011ce:	8532                	mv	a0,a2
 80011d0:	8082                	ret
 80011d2:	86aa                	mv	a3,a0
 80011d4:	ca09                	beqz	a2,0x80011e6
 80011d6:	0005c703          	lbu	a4,0(a1) # 0x20000000
 80011da:	167d                	addi	a2,a2,-1
 80011dc:	00e68023          	sb	a4,0(a3)
 80011e0:	0685                	addi	a3,a3,1
 80011e2:	0585                	addi	a1,a1,1
 80011e4:	fa6d                	bnez	a2,0x80011d6
 80011e6:	8082                	ret
 80011e8:	ca01                	beqz	a2,0x80011f8
 80011ea:	962a                	add	a2,a2,a0
 80011ec:	86aa                	mv	a3,a0
 80011ee:	00b68023          	sb	a1,0(a3)
 80011f2:	0685                	addi	a3,a3,1
 80011f4:	fec69de3          	bne	a3,a2,0x80011ee
 80011f8:	8082                	ret
 80011fa:	d5ae                	sw	a1,232(sp)
 80011fc:	a880                	.insn	2, 0xa880
 80011fe:	4000d33f 0020148d 	.insn	8, 0x0020148d4000d33f
 8001206:	c8a1                	beqz	s1,0x8001256
 8001208:	12da                	slli	t0,t0,0x36
 800120a:	cf81                	beqz	a5,0x8001222
 800120c:	f1d9                	bnez	a1,0x8001192
 800120e:	a6a440db          	.insn	4, 0xa6a440db
 8001212:	4f4c53af          	.insn	4, 0x4f4c53af
 8001216:	41460057          	.insn	4, 0x41460057
 800121a:	52005453          	.insn	4, 0x52005453
 800121e:	4f00544f          	.insn	4, 0x4f00544f
 8001222:	454c                	lw	a1,12(a0)
 8001224:	2b44                	.insn	2, 0x2b44
 8001226:	3c00                	.insn	2, 0x3c00
 8001228:	a542                	.insn	2, 0xa542
 800122a:	a581                	j	0x800186a
 800122c:	4299                	li	t0,6
 800122e:	183c                	addi	a5,sp,56
 8001230:	7e3c                	.insn	2, 0x7e3c
 8001232:	247effdb          	.insn	4, 0x247effdb
 8001236:	1824                	addi	s1,sp,56
 8001238:	7e3c                	.insn	2, 0x7e3c
 800123a:	ffff                	.insn	2, 0xffff
 800123c:	3c7e                	.insn	2, 0x3c7e
 800123e:	003c                	addi	a5,sp,8
 8001240:	0000                	unimp
 8001242:	0000                	unimp
 8001244:	0000                	unimp
 8001246:	7e00                	.insn	2, 0x7e00
 8001248:	a581                	j	0x8001888
 800124a:	bd81                	j	0x800109a
 800124c:	8199                	srli	a1,a1,0x6
 800124e:	7e7e                	.insn	2, 0x7e7e
 8001250:	c3ffdbff 6c7effe7 	.insn	20, 0x7cfe7c38100010387cfefefe6c7effe7c3ffdbff
 8001258:	7cfefefe 10001038 
 8001260:	7cfe7c38 
 8001264:	1038                	addi	a4,sp,40
 8001266:	3800                	.insn	2, 0x3800
 8001268:	387c                	.insn	2, 0x387c
 800126a:	fefe                	.insn	2, 0xfefe
 800126c:	10d6                	slli	ra,ra,0x35
 800126e:	1038                	addi	a4,sp,40
 8001270:	7c38                	.insn	2, 0x7c38
 8001272:	fefe                	.insn	2, 0xfefe
 8001274:	107c                	addi	a5,sp,44
 8001276:	0038                	addi	a4,sp,8
 8001278:	1800                	addi	s0,sp,48
 800127a:	3c3c                	.insn	2, 0x3c3c
 800127c:	0018                	.insn	2, 0x0018
 800127e:	ff00                	.insn	2, 0xff00
 8001280:	e7ff c3c3 ffe7 00ff 	.insn	22, 0xc399bdbd99c3ff003c664242663c00ffffe7c3c3e7ff
 8001288:	663c 4242 3c66 ff00 
 8001290:	99c3 bdbd c399 
 8001296:	0fff 0f07 cc7d cccc 	.insn	10, 0x3c78cccccc7d0f070fff
 800129e:	3c78 
 80012a0:	6666                	.insn	2, 0x6666
 80012a2:	3c66                	.insn	2, 0x3c66
 80012a4:	7e18                	.insn	2, 0x7e18
 80012a6:	3f18                	.insn	2, 0x3f18
 80012a8:	30303f33          	.insn	4, 0x30303f33
 80012ac:	f070                	.insn	2, 0xf070
 80012ae:	7fe0                	.insn	2, 0x7fe0
 80012b0:	63637f63          	bgeu	t1,s6,0x80018ee
 80012b4:	18c0e667          	.insn	4, 0x18c0e667
 80012b8:	e7e73cdb          	.insn	4, 0xe7e73cdb
 80012bc:	db3c                	sw	a5,112(a4)
 80012be:	8018                	.insn	2, 0x8018
 80012c0:	f8e0                	.insn	2, 0xf8e0
 80012c2:	f8fe                	.insn	2, 0xf8fe
 80012c4:	80e0                	.insn	2, 0x80e0
 80012c6:	0200                	addi	s0,sp,256
 80012c8:	3e0e                	.insn	2, 0x3e0e
 80012ca:	3efe                	.insn	2, 0x3efe
 80012cc:	020e                	slli	tp,tp,0x3
 80012ce:	1800                	addi	s0,sp,48
 80012d0:	7e3c                	.insn	2, 0x7e3c
 80012d2:	1818                	addi	a4,sp,48
 80012d4:	3c7e                	.insn	2, 0x3c7e
 80012d6:	6618                	.insn	2, 0x6618
 80012d8:	6666                	.insn	2, 0x6666
 80012da:	6666                	.insn	2, 0x6666
 80012dc:	6600                	.insn	2, 0x6600
 80012de:	7f00                	.insn	2, 0x7f00
 80012e0:	1b7bdbdb          	.insn	4, 0x1b7bdbdb
 80012e4:	3e001b1b          	.insn	4, 0x3e001b1b
 80012e8:	3c61                	jal	0x8000d80
 80012ea:	6666                	.insn	2, 0x6666
 80012ec:	863c                	.insn	2, 0x863c
 80012ee:	007c                	addi	a5,sp,12
 80012f0:	0000                	unimp
 80012f2:	7e00                	.insn	2, 0x7e00
 80012f4:	7e7e                	.insn	2, 0x7e7e
 80012f6:	1800                	addi	s0,sp,48
 80012f8:	7e3c                	.insn	2, 0x7e3c
 80012fa:	7e18                	.insn	2, 0x7e18
 80012fc:	183c                	addi	a5,sp,56
 80012fe:	7e3c18ff 18181818 	.insn	12, 0x18181800181818187e3c18ff
 8001306:	18181800 
 800130a:	7e18                	.insn	2, 0x7e18
 800130c:	183c                	addi	a5,sp,56
 800130e:	0000                	unimp
 8001310:	0c18                	addi	a4,sp,528
 8001312:	0cfe                	slli	s9,s9,0x1f
 8001314:	0018                	.insn	2, 0x0018
 8001316:	0000                	unimp
 8001318:	6030                	.insn	2, 0x6030
 800131a:	60fe                	.insn	2, 0x60fe
 800131c:	0030                	addi	a2,sp,8
 800131e:	0000                	unimp
 8001320:	c000                	sw	s0,0(s0)
 8001322:	c0c0                	sw	s0,4(s1)
 8001324:	00fe                	slli	ra,ra,0x1f
 8001326:	0000                	unimp
 8001328:	6624                	.insn	2, 0x6624
 800132a:	66ff 0024 0000 3c18 	.insn	22, 0x00183c7effff000000ffff7e3c180000002466ff
 8001332:	ff7e 00ff 0000 ffff 
 800133a:	3c7e 0018 0000 
 8001340:	0000                	unimp
 8001342:	0000                	unimp
 8001344:	0000                	unimp
 8001346:	1800                	addi	s0,sp,48
 8001348:	3c3c                	.insn	2, 0x3c3c
 800134a:	1818                	addi	a4,sp,48
 800134c:	1800                	addi	s0,sp,48
 800134e:	6600                	.insn	2, 0x6600
 8001350:	2466                	.insn	2, 0x2466
 8001352:	0000                	unimp
 8001354:	0000                	unimp
 8001356:	6c00                	.insn	2, 0x6c00
 8001358:	fe6c                	.insn	2, 0xfe6c
 800135a:	fe6c                	.insn	2, 0xfe6c
 800135c:	6c6c                	.insn	2, 0x6c6c
 800135e:	1800                	addi	s0,sp,48
 8001360:	603e                	.insn	2, 0x603e
 8001362:	063c                	addi	a5,sp,776
 8001364:	187c                	addi	a5,sp,60
 8001366:	0000                	unimp
 8001368:	ccc6                	sw	a7,88(sp)
 800136a:	3018                	.insn	2, 0x3018
 800136c:	c666                	sw	s9,12(sp)
 800136e:	3800                	.insn	2, 0x3800
 8001370:	386c                	.insn	2, 0x386c
 8001372:	dc76                	sw	t4,56(sp)
 8001374:	76cc                	.insn	2, 0x76cc
 8001376:	1800                	addi	s0,sp,48
 8001378:	3018                	.insn	2, 0x3018
 800137a:	0000                	unimp
 800137c:	0000                	unimp
 800137e:	0c00                	addi	s0,sp,528
 8001380:	3018                	.insn	2, 0x3018
 8001382:	3030                	.insn	2, 0x3030
 8001384:	0c18                	addi	a4,sp,528
 8001386:	3000                	.insn	2, 0x3000
 8001388:	0c18                	addi	a4,sp,528
 800138a:	0c0c                	addi	a1,sp,528
 800138c:	3018                	.insn	2, 0x3018
 800138e:	0000                	unimp
 8001390:	3c66                	.insn	2, 0x3c66
 8001392:	00663cff 18180000 	.insn	16, 0x0018187e1818000000663cff
 800139a:	0018187e 00000000 
 80013a2:	0000                	unimp
 80013a4:	1818                	addi	a4,sp,48
 80013a6:	0030                	addi	a2,sp,8
 80013a8:	0000                	unimp
 80013aa:	007e                	c.slli	zero,0x1f
	...
 80013b4:	1818                	addi	a4,sp,48
 80013b6:	0600                	addi	s0,sp,768
 80013b8:	180c                	addi	a1,sp,48
 80013ba:	6030                	.insn	2, 0x6030
 80013bc:	80c0                	.insn	2, 0x80c0
 80013be:	3800                	.insn	2, 0x3800
 80013c0:	c66c                	sw	a1,76(a2)
 80013c2:	c6d6                	sw	s5,76(sp)
 80013c4:	386c                	.insn	2, 0x386c
 80013c6:	1800                	addi	s0,sp,48
 80013c8:	1838                	addi	a4,sp,56
 80013ca:	1818                	addi	a4,sp,48
 80013cc:	7e18                	.insn	2, 0x7e18
 80013ce:	7c00                	.insn	2, 0x7c00
 80013d0:	06c6                	slli	a3,a3,0x11
 80013d2:	301c                	.insn	2, 0x301c
 80013d4:	fe66                	.insn	2, 0xfe66
 80013d6:	7c00                	.insn	2, 0x7c00
 80013d8:	06c6                	slli	a3,a3,0x11
 80013da:	063c                	addi	a5,sp,776
 80013dc:	7cc6                	.insn	2, 0x7cc6
 80013de:	1c00                	addi	s0,sp,560
 80013e0:	6c3c                	.insn	2, 0x6c3c
 80013e2:	fecc                	.insn	2, 0xfecc
 80013e4:	1e0c                	addi	a1,sp,816
 80013e6:	fe00                	.insn	2, 0xfe00
 80013e8:	c0c0                	sw	s0,4(s1)
 80013ea:	06fc                	addi	a5,sp,844
 80013ec:	7cc6                	.insn	2, 0x7cc6
 80013ee:	3800                	.insn	2, 0x3800
 80013f0:	c060                	sw	s0,68(s0)
 80013f2:	c6fc                	sw	a5,76(a3)
 80013f4:	7cc6                	.insn	2, 0x7cc6
 80013f6:	fe00                	.insn	2, 0xfe00
 80013f8:	0cc6                	slli	s9,s9,0x11
 80013fa:	3018                	.insn	2, 0x3018
 80013fc:	3030                	.insn	2, 0x3030
 80013fe:	7c00                	.insn	2, 0x7c00
 8001400:	c6c6                	sw	a7,76(sp)
 8001402:	c67c                	sw	a5,76(a2)
 8001404:	7cc6                	.insn	2, 0x7cc6
 8001406:	7c00                	.insn	2, 0x7c00
 8001408:	c6c6                	sw	a7,76(sp)
 800140a:	067e                	slli	a2,a2,0x1f
 800140c:	780c                	.insn	2, 0x780c
 800140e:	0000                	unimp
 8001410:	1818                	addi	a4,sp,48
 8001412:	0000                	unimp
 8001414:	1818                	addi	a4,sp,48
 8001416:	0000                	unimp
 8001418:	1818                	addi	a4,sp,48
 800141a:	0000                	unimp
 800141c:	1818                	addi	a4,sp,48
 800141e:	0630                	addi	a2,sp,776
 8001420:	180c                	addi	a1,sp,48
 8001422:	1830                	addi	a2,sp,56
 8001424:	060c                	addi	a1,sp,768
 8001426:	0000                	unimp
 8001428:	7e00                	.insn	2, 0x7e00
 800142a:	0000                	unimp
 800142c:	007e                	c.slli	zero,0x1f
 800142e:	6000                	.insn	2, 0x6000
 8001430:	1830                	addi	a2,sp,56
 8001432:	180c                	addi	a1,sp,48
 8001434:	6030                	.insn	2, 0x6030
 8001436:	7c00                	.insn	2, 0x7c00
 8001438:	0cc6                	slli	s9,s9,0x11
 800143a:	1818                	addi	a4,sp,48
 800143c:	1800                	addi	s0,sp,48
 800143e:	7c00                	.insn	2, 0x7c00
 8001440:	dec6                	sw	a7,124(sp)
 8001442:	dede                	sw	s7,124(sp)
 8001444:	78c0                	.insn	2, 0x78c0
 8001446:	3800                	.insn	2, 0x3800
 8001448:	c66c                	sw	a1,76(a2)
 800144a:	c6fe                	sw	t6,76(sp)
 800144c:	c6c6                	sw	a7,76(sp)
 800144e:	fc00                	.insn	2, 0xfc00
 8001450:	6666                	.insn	2, 0x6666
 8001452:	667c                	.insn	2, 0x667c
 8001454:	fc66                	.insn	2, 0xfc66
 8001456:	3c00                	.insn	2, 0x3c00
 8001458:	c066                	sw	s9,0(sp)
 800145a:	c0c0                	sw	s0,4(s1)
 800145c:	3c66                	.insn	2, 0x3c66
 800145e:	f800                	.insn	2, 0xf800
 8001460:	666c                	.insn	2, 0x666c
 8001462:	6666                	.insn	2, 0x6666
 8001464:	f86c                	.insn	2, 0xf86c
 8001466:	fe00                	.insn	2, 0xfe00
 8001468:	6862                	.insn	2, 0x6862
 800146a:	6878                	.insn	2, 0x6878
 800146c:	fe62                	.insn	2, 0xfe62
 800146e:	fe00                	.insn	2, 0xfe00
 8001470:	6862                	.insn	2, 0x6862
 8001472:	6878                	.insn	2, 0x6878
 8001474:	f060                	.insn	2, 0xf060
 8001476:	3c00                	.insn	2, 0x3c00
 8001478:	c066                	sw	s9,0(sp)
 800147a:	cec0                	sw	s0,28(a3)
 800147c:	3a66                	.insn	2, 0x3a66
 800147e:	c600                	sw	s0,8(a2)
 8001480:	c6c6                	sw	a7,76(sp)
 8001482:	c6fe                	sw	t6,76(sp)
 8001484:	c6c6                	sw	a7,76(sp)
 8001486:	3c00                	.insn	2, 0x3c00
 8001488:	1818                	addi	a4,sp,48
 800148a:	1818                	addi	a4,sp,48
 800148c:	3c18                	.insn	2, 0x3c18
 800148e:	1e00                	addi	s0,sp,816
 8001490:	0c0c                	addi	a1,sp,528
 8001492:	cc0c                	sw	a1,24(s0)
 8001494:	78cc                	.insn	2, 0x78cc
 8001496:	e600                	.insn	2, 0xe600
 8001498:	6c66                	.insn	2, 0x6c66
 800149a:	6c78                	.insn	2, 0x6c78
 800149c:	e666                	.insn	2, 0xe666
 800149e:	f000                	.insn	2, 0xf000
 80014a0:	6060                	.insn	2, 0x6060
 80014a2:	6260                	.insn	2, 0x6260
 80014a4:	fe66                	.insn	2, 0xfe66
 80014a6:	c600                	sw	s0,8(a2)
 80014a8:	feee                	.insn	2, 0xfeee
 80014aa:	d6fe                	sw	t6,108(sp)
 80014ac:	c6c6                	sw	a7,76(sp)
 80014ae:	c600                	sw	s0,8(a2)
 80014b0:	f6e6                	.insn	2, 0xf6e6
 80014b2:	cede                	sw	s7,92(sp)
 80014b4:	c6c6                	sw	a7,76(sp)
 80014b6:	7c00                	.insn	2, 0x7c00
 80014b8:	c6c6                	sw	a7,76(sp)
 80014ba:	c6c6                	sw	a7,76(sp)
 80014bc:	7cc6                	.insn	2, 0x7cc6
 80014be:	fc00                	.insn	2, 0xfc00
 80014c0:	6666                	.insn	2, 0x6666
 80014c2:	607c                	.insn	2, 0x607c
 80014c4:	f060                	.insn	2, 0xf060
 80014c6:	7c00                	.insn	2, 0x7c00
 80014c8:	c6c6                	sw	a7,76(sp)
 80014ca:	c6c6                	sw	a7,76(sp)
 80014cc:	7cce                	.insn	2, 0x7cce
 80014ce:	fc0e                	.insn	2, 0xfc0e
 80014d0:	6666                	.insn	2, 0x6666
 80014d2:	6c7c                	.insn	2, 0x6c7c
 80014d4:	e666                	.insn	2, 0xe666
 80014d6:	3c00                	.insn	2, 0x3c00
 80014d8:	3066                	.insn	2, 0x3066
 80014da:	0c18                	addi	a4,sp,528
 80014dc:	3c66                	.insn	2, 0x3c66
 80014de:	7e00                	.insn	2, 0x7e00
 80014e0:	5a7e                	lw	s4,252(sp)
 80014e2:	1818                	addi	a4,sp,48
 80014e4:	3c18                	.insn	2, 0x3c18
 80014e6:	c600                	sw	s0,8(a2)
 80014e8:	c6c6                	sw	a7,76(sp)
 80014ea:	c6c6                	sw	a7,76(sp)
 80014ec:	7cc6                	.insn	2, 0x7cc6
 80014ee:	c600                	sw	s0,8(a2)
 80014f0:	c6c6                	sw	a7,76(sp)
 80014f2:	c6c6                	sw	a7,76(sp)
 80014f4:	386c                	.insn	2, 0x386c
 80014f6:	c600                	sw	s0,8(a2)
 80014f8:	c6c6                	sw	a7,76(sp)
 80014fa:	d6d6                	sw	s5,108(sp)
 80014fc:	6cfe                	.insn	2, 0x6cfe
 80014fe:	c600                	sw	s0,8(a2)
 8001500:	6cc6                	.insn	2, 0x6cc6
 8001502:	6c38                	.insn	2, 0x6c38
 8001504:	c6c6                	sw	a7,76(sp)
 8001506:	6600                	.insn	2, 0x6600
 8001508:	6666                	.insn	2, 0x6666
 800150a:	183c                	addi	a5,sp,56
 800150c:	3c18                	.insn	2, 0x3c18
 800150e:	fe00                	.insn	2, 0xfe00
 8001510:	8cc6                	mv	s9,a7
 8001512:	3218                	.insn	2, 0x3218
 8001514:	fe66                	.insn	2, 0xfe66
 8001516:	3c00                	.insn	2, 0x3c00
 8001518:	3030                	.insn	2, 0x3030
 800151a:	3030                	.insn	2, 0x3030
 800151c:	3c30                	.insn	2, 0x3c30
 800151e:	c000                	sw	s0,0(s0)
 8001520:	3060                	.insn	2, 0x3060
 8001522:	0c18                	addi	a4,sp,528
 8001524:	0206                	slli	tp,tp,0x1
 8001526:	3c00                	.insn	2, 0x3c00
 8001528:	0c0c                	addi	a1,sp,528
 800152a:	0c0c                	addi	a1,sp,528
 800152c:	3c0c                	.insn	2, 0x3c0c
 800152e:	1000                	addi	s0,sp,32
 8001530:	6c38                	.insn	2, 0x6c38
 8001532:	00c6                	slli	ra,ra,0x11
	...
 800153c:	0000                	unimp
 800153e:	0c1830ff 00000000 	.insn	16, 0x76cc7c0c78000000000000000c1830ff
 8001546:	78000000 76cc7c0c 
 800154e:	e000                	.insn	2, 0xe000
 8001550:	7c60                	.insn	2, 0x7c60
 8001552:	6666                	.insn	2, 0x6666
 8001554:	dc66                	sw	s9,56(sp)
 8001556:	0000                	unimp
 8001558:	7c00                	.insn	2, 0x7c00
 800155a:	c0c6                	sw	a7,64(sp)
 800155c:	7cc6                	.insn	2, 0x7cc6
 800155e:	1c00                	addi	s0,sp,560
 8001560:	7c0c                	.insn	2, 0x7c0c
 8001562:	cccc                	sw	a1,28(s1)
 8001564:	76cc                	.insn	2, 0x76cc
 8001566:	0000                	unimp
 8001568:	7c00                	.insn	2, 0x7c00
 800156a:	fec6                	.insn	2, 0xfec6
 800156c:	7cc0                	.insn	2, 0x7cc0
 800156e:	3c00                	.insn	2, 0x3c00
 8001570:	6066                	.insn	2, 0x6066
 8001572:	60f8                	.insn	2, 0x60f8
 8001574:	f060                	.insn	2, 0xf060
 8001576:	0000                	unimp
 8001578:	7600                	.insn	2, 0x7600
 800157a:	cccc                	sw	a1,28(s1)
 800157c:	0c7c                	addi	a5,sp,540
 800157e:	e0f8                	.insn	2, 0xe0f8
 8001580:	6c60                	.insn	2, 0x6c60
 8001582:	6676                	.insn	2, 0x6676
 8001584:	e666                	.insn	2, 0xe666
 8001586:	1800                	addi	s0,sp,48
 8001588:	3800                	.insn	2, 0x3800
 800158a:	1818                	addi	a4,sp,48
 800158c:	3c18                	.insn	2, 0x3c18
 800158e:	0600                	addi	s0,sp,768
 8001590:	0600                	addi	s0,sp,768
 8001592:	0606                	slli	a2,a2,0x1
 8001594:	6666                	.insn	2, 0x6666
 8001596:	e03c                	.insn	2, 0xe03c
 8001598:	6660                	.insn	2, 0x6660
 800159a:	786c                	.insn	2, 0x786c
 800159c:	e66c                	.insn	2, 0xe66c
 800159e:	3800                	.insn	2, 0x3800
 80015a0:	1818                	addi	a4,sp,48
 80015a2:	1818                	addi	a4,sp,48
 80015a4:	3c18                	.insn	2, 0x3c18
 80015a6:	0000                	unimp
 80015a8:	ec00                	.insn	2, 0xec00
 80015aa:	d6fe                	sw	t6,108(sp)
 80015ac:	d6d6                	sw	s5,108(sp)
 80015ae:	0000                	unimp
 80015b0:	dc00                	sw	s0,56(s0)
 80015b2:	6666                	.insn	2, 0x6666
 80015b4:	6666                	.insn	2, 0x6666
 80015b6:	0000                	unimp
 80015b8:	7c00                	.insn	2, 0x7c00
 80015ba:	c6c6                	sw	a7,76(sp)
 80015bc:	7cc6                	.insn	2, 0x7cc6
 80015be:	0000                	unimp
 80015c0:	dc00                	sw	s0,56(s0)
 80015c2:	6666                	.insn	2, 0x6666
 80015c4:	607c                	.insn	2, 0x607c
 80015c6:	00f0                	addi	a2,sp,76
 80015c8:	7600                	.insn	2, 0x7600
 80015ca:	cccc                	sw	a1,28(s1)
 80015cc:	0c7c                	addi	a5,sp,540
 80015ce:	001e                	c.slli	zero,0x7
 80015d0:	dc00                	sw	s0,56(s0)
 80015d2:	6076                	.insn	2, 0x6076
 80015d4:	f060                	.insn	2, 0xf060
 80015d6:	0000                	unimp
 80015d8:	7e00                	.insn	2, 0x7e00
 80015da:	7cc0                	.insn	2, 0x7cc0
 80015dc:	fc06                	.insn	2, 0xfc06
 80015de:	3000                	.insn	2, 0x3000
 80015e0:	fc30                	.insn	2, 0xfc30
 80015e2:	3030                	.insn	2, 0x3030
 80015e4:	1c36                	slli	s8,s8,0x2d
 80015e6:	0000                	unimp
 80015e8:	cc00                	sw	s0,24(s0)
 80015ea:	cccc                	sw	a1,28(s1)
 80015ec:	76cc                	.insn	2, 0x76cc
 80015ee:	0000                	unimp
 80015f0:	c600                	sw	s0,8(a2)
 80015f2:	c6c6                	sw	a7,76(sp)
 80015f4:	386c                	.insn	2, 0x386c
 80015f6:	0000                	unimp
 80015f8:	c600                	sw	s0,8(a2)
 80015fa:	d6d6                	sw	s5,108(sp)
 80015fc:	6cfe                	.insn	2, 0x6cfe
 80015fe:	0000                	unimp
 8001600:	c600                	sw	s0,8(a2)
 8001602:	386c                	.insn	2, 0x386c
 8001604:	c66c                	sw	a1,76(a2)
 8001606:	0000                	unimp
 8001608:	c600                	sw	s0,8(a2)
 800160a:	c6c6                	sw	a7,76(sp)
 800160c:	067e                	slli	a2,a2,0x1f
 800160e:	00fc                	addi	a5,sp,76
 8001610:	7e00                	.insn	2, 0x7e00
 8001612:	184c                	addi	a1,sp,52
 8001614:	7e32                	.insn	2, 0x7e32
 8001616:	0e00                	addi	s0,sp,784
 8001618:	1818                	addi	a4,sp,48
 800161a:	1870                	addi	a2,sp,60
 800161c:	0e18                	addi	a4,sp,784
 800161e:	1800                	addi	s0,sp,48
 8001620:	1818                	addi	a4,sp,48
 8001622:	1818                	addi	a4,sp,48
 8001624:	1818                	addi	a4,sp,48
 8001626:	7000                	.insn	2, 0x7000
 8001628:	1818                	addi	a4,sp,48
 800162a:	180e                	slli	a6,a6,0x23
 800162c:	7018                	.insn	2, 0x7018
 800162e:	7600                	.insn	2, 0x7600
 8001630:	00dc                	addi	a5,sp,68
 8001632:	0000                	unimp
 8001634:	0000                	unimp
 8001636:	0000                	unimp
 8001638:	3810                	.insn	2, 0x3810
 800163a:	c66c                	sw	a1,76(a2)
 800163c:	fec6                	.insn	2, 0xfec6
 800163e:	7c00                	.insn	2, 0x7c00
 8001640:	c0c6                	sw	a7,64(sp)
 8001642:	c6c0                	sw	s0,12(a3)
 8001644:	0c7c                	addi	a5,sp,540
 8001646:	cc78                	sw	a4,92(s0)
 8001648:	cc00                	sw	s0,24(s0)
 800164a:	cccc                	sw	a1,28(s1)
 800164c:	76cc                	.insn	2, 0x76cc
 800164e:	0c00                	addi	s0,sp,528
 8001650:	7c18                	.insn	2, 0x7c18
 8001652:	fec6                	.insn	2, 0xfec6
 8001654:	7cc0                	.insn	2, 0x7cc0
 8001656:	7c00                	.insn	2, 0x7c00
 8001658:	7882                	.insn	2, 0x7882
 800165a:	7c0c                	.insn	2, 0x7c0c
 800165c:	76cc                	.insn	2, 0x76cc
 800165e:	c600                	sw	s0,8(a2)
 8001660:	7800                	.insn	2, 0x7800
 8001662:	7c0c                	.insn	2, 0x7c0c
 8001664:	76cc                	.insn	2, 0x76cc
 8001666:	3000                	.insn	2, 0x3000
 8001668:	7818                	.insn	2, 0x7818
 800166a:	7c0c                	.insn	2, 0x7c0c
 800166c:	76cc                	.insn	2, 0x76cc
 800166e:	3000                	.insn	2, 0x3000
 8001670:	7830                	.insn	2, 0x7830
 8001672:	7c0c                	.insn	2, 0x7c0c
 8001674:	76cc                	.insn	2, 0x76cc
 8001676:	0000                	unimp
 8001678:	7e00                	.insn	2, 0x7e00
 800167a:	c0c0                	sw	s0,4(s1)
 800167c:	0c7e                	slli	s8,s8,0x1f
 800167e:	7c38                	.insn	2, 0x7c38
 8001680:	7c82                	.insn	2, 0x7c82
 8001682:	fec6                	.insn	2, 0xfec6
 8001684:	7cc0                	.insn	2, 0x7cc0
 8001686:	c600                	sw	s0,8(a2)
 8001688:	7c00                	.insn	2, 0x7c00
 800168a:	fec6                	.insn	2, 0xfec6
 800168c:	7cc0                	.insn	2, 0x7cc0
 800168e:	3000                	.insn	2, 0x3000
 8001690:	7c18                	.insn	2, 0x7c18
 8001692:	fec6                	.insn	2, 0xfec6
 8001694:	7cc0                	.insn	2, 0x7cc0
 8001696:	6600                	.insn	2, 0x6600
 8001698:	3800                	.insn	2, 0x3800
 800169a:	1818                	addi	a4,sp,48
 800169c:	3c18                	.insn	2, 0x3c18
 800169e:	7c00                	.insn	2, 0x7c00
 80016a0:	3882                	.insn	2, 0x3882
 80016a2:	1818                	addi	a4,sp,48
 80016a4:	3c18                	.insn	2, 0x3c18
 80016a6:	3000                	.insn	2, 0x3000
 80016a8:	0018                	.insn	2, 0x0018
 80016aa:	1838                	addi	a4,sp,56
 80016ac:	3c18                	.insn	2, 0x3c18
 80016ae:	c600                	sw	s0,8(a2)
 80016b0:	6c38                	.insn	2, 0x6c38
 80016b2:	fec6                	.insn	2, 0xfec6
 80016b4:	c6c6                	sw	a7,76(sp)
 80016b6:	3800                	.insn	2, 0x3800
 80016b8:	7c6c                	.insn	2, 0x7c6c
 80016ba:	fec6                	.insn	2, 0xfec6
 80016bc:	c6c6                	sw	a7,76(sp)
 80016be:	1800                	addi	s0,sp,48
 80016c0:	fe30                	.insn	2, 0xfe30
 80016c2:	f8c0                	.insn	2, 0xf8c0
 80016c4:	fec0                	.insn	2, 0xfec0
 80016c6:	0000                	unimp
 80016c8:	7e00                	.insn	2, 0x7e00
 80016ca:	7e18                	.insn	2, 0x7e18
 80016cc:	7ed8                	.insn	2, 0x7ed8
 80016ce:	3e00                	.insn	2, 0x3e00
 80016d0:	cc6c                	sw	a1,92(s0)
 80016d2:	ccfe                	sw	t6,88(sp)
 80016d4:	cecc                	sw	a1,28(a3)
 80016d6:	7c00                	.insn	2, 0x7c00
 80016d8:	7c82                	.insn	2, 0x7c82
 80016da:	c6c6                	sw	a7,76(sp)
 80016dc:	7cc6                	.insn	2, 0x7cc6
 80016de:	c600                	sw	s0,8(a2)
 80016e0:	7c00                	.insn	2, 0x7c00
 80016e2:	c6c6                	sw	a7,76(sp)
 80016e4:	7cc6                	.insn	2, 0x7cc6
 80016e6:	3000                	.insn	2, 0x3000
 80016e8:	7c18                	.insn	2, 0x7c18
 80016ea:	c6c6                	sw	a7,76(sp)
 80016ec:	7cc6                	.insn	2, 0x7cc6
 80016ee:	7800                	.insn	2, 0x7800
 80016f0:	0084                	addi	s1,sp,64
 80016f2:	cccc                	sw	a1,28(s1)
 80016f4:	76cc                	.insn	2, 0x76cc
 80016f6:	6000                	.insn	2, 0x6000
 80016f8:	cc30                	sw	a2,88(s0)
 80016fa:	cccc                	sw	a1,28(s1)
 80016fc:	76cc                	.insn	2, 0x76cc
 80016fe:	c600                	sw	s0,8(a2)
 8001700:	c600                	sw	s0,8(a2)
 8001702:	c6c6                	sw	a7,76(sp)
 8001704:	067e                	slli	a2,a2,0x1f
 8001706:	c6fc                	sw	a5,76(a3)
 8001708:	6c38                	.insn	2, 0x6c38
 800170a:	c6c6                	sw	a7,76(sp)
 800170c:	386c                	.insn	2, 0x386c
 800170e:	c600                	sw	s0,8(a2)
 8001710:	c600                	sw	s0,8(a2)
 8001712:	c6c6                	sw	a7,76(sp)
 8001714:	7cc6                	.insn	2, 0x7cc6
 8001716:	1800                	addi	s0,sp,48
 8001718:	7e18                	.insn	2, 0x7e18
 800171a:	c0c0                	sw	s0,4(s1)
 800171c:	187e                	slli	a6,a6,0x3f
 800171e:	3818                	.insn	2, 0x3818
 8001720:	646c                	.insn	2, 0x646c
 8001722:	60f0                	.insn	2, 0x60f0
 8001724:	fc66                	.insn	2, 0xfc66
 8001726:	6600                	.insn	2, 0x6600
 8001728:	3c66                	.insn	2, 0x3c66
 800172a:	187e                	slli	a6,a6,0x3f
 800172c:	187e                	slli	a6,a6,0x3f
 800172e:	f818                	.insn	2, 0xf818
 8001730:	cccc                	sw	a1,28(s1)
 8001732:	c6fa                	sw	t5,76(sp)
 8001734:	0ec7c6cf          	.insn	4, 0x0ec7c6cf
 8001738:	183c181b          	.insn	4, 0x183c181b
 800173c:	70d8                	.insn	2, 0x70d8
 800173e:	1800                	addi	s0,sp,48
 8001740:	7830                	.insn	2, 0x7830
 8001742:	7c0c                	.insn	2, 0x7c0c
 8001744:	76cc                	.insn	2, 0x76cc
 8001746:	0c00                	addi	s0,sp,528
 8001748:	0018                	.insn	2, 0x0018
 800174a:	1838                	addi	a4,sp,56
 800174c:	3c18                	.insn	2, 0x3c18
 800174e:	0c00                	addi	s0,sp,528
 8001750:	7c18                	.insn	2, 0x7c18
 8001752:	c6c6                	sw	a7,76(sp)
 8001754:	7cc6                	.insn	2, 0x7cc6
 8001756:	1800                	addi	s0,sp,48
 8001758:	cc30                	sw	a2,88(s0)
 800175a:	cccc                	sw	a1,28(s1)
 800175c:	76cc                	.insn	2, 0x76cc
 800175e:	7600                	.insn	2, 0x7600
 8001760:	00dc                	addi	a5,sp,68
 8001762:	66dc                	.insn	2, 0x66dc
 8001764:	6666                	.insn	2, 0x6666
 8001766:	7600                	.insn	2, 0x7600
 8001768:	00dc                	addi	a5,sp,68
 800176a:	f6e6                	.insn	2, 0xf6e6
 800176c:	cede                	sw	s7,92(sp)
 800176e:	3c00                	.insn	2, 0x3c00
 8001770:	6c6c                	.insn	2, 0x6c6c
 8001772:	003e                	c.slli	zero,0xf
 8001774:	007e                	c.slli	zero,0x1f
 8001776:	3800                	.insn	2, 0x3800
 8001778:	6c6c                	.insn	2, 0x6c6c
 800177a:	0038                	addi	a4,sp,8
 800177c:	007c                	addi	a5,sp,12
 800177e:	1800                	addi	s0,sp,48
 8001780:	1800                	addi	s0,sp,48
 8001782:	3018                	.insn	2, 0x3018
 8001784:	00003e63          	.insn	4, 0x3e63
 8001788:	0000                	unimp
 800178a:	c0fe                	sw	t6,64(sp)
 800178c:	00c0                	addi	s0,sp,68
 800178e:	0000                	unimp
 8001790:	0000                	unimp
 8001792:	06fe                	slli	a3,a3,0x1f
 8001794:	0006                	c.slli	zero,0x1
 8001796:	6300                	.insn	2, 0x6300
 8001798:	6ce6                	.insn	2, 0x6ce6
 800179a:	337e                	.insn	2, 0x337e
 800179c:	cc66                	sw	s9,24(sp)
 800179e:	6ce6630f          	.insn	4, 0x6ce6630f
 80017a2:	367a                	.insn	2, 0x367a
 80017a4:	df6a                	sw	s10,188(sp)
 80017a6:	1806                	slli	a6,a6,0x21
 80017a8:	1800                	addi	s0,sp,48
 80017aa:	3c18                	.insn	2, 0x3c18
 80017ac:	183c                	addi	a5,sp,56
 80017ae:	0000                	unimp
 80017b0:	66cc6633          	.insn	4, 0x66cc6633
 80017b4:	00000033          	add	zero,zero,zero
 80017b8:	66cc                	.insn	2, 0x66cc
 80017ba:	00cc6633          	or	a2,s8,a2
 80017be:	2200                	.insn	2, 0x2200
 80017c0:	2288                	.insn	2, 0x2288
 80017c2:	2288                	.insn	2, 0x2288
 80017c4:	2288                	.insn	2, 0x2288
 80017c6:	5588                	lw	a0,40(a1)
 80017c8:	55aa                	lw	a1,168(sp)
 80017ca:	55aa                	lw	a1,168(sp)
 80017cc:	55aa                	lw	a1,168(sp)
 80017ce:	77aa                	.insn	2, 0x77aa
 80017d0:	77dd                	lui	a5,0xffff7
 80017d2:	77dd                	lui	a5,0xffff7
 80017d4:	77dd                	lui	a5,0xffff7
 80017d6:	18dd                	addi	a7,a7,-9
 80017d8:	1818                	addi	a4,sp,48
 80017da:	1818                	addi	a4,sp,48
 80017dc:	1818                	addi	a4,sp,48
 80017de:	1818                	addi	a4,sp,48
 80017e0:	1818                	addi	a4,sp,48
 80017e2:	f818                	.insn	2, 0xf818
 80017e4:	1818                	addi	a4,sp,48
 80017e6:	1818                	addi	a4,sp,48
 80017e8:	f818                	.insn	2, 0xf818
 80017ea:	f818                	.insn	2, 0xf818
 80017ec:	1818                	addi	a4,sp,48
 80017ee:	3618                	.insn	2, 0x3618
 80017f0:	3636                	.insn	2, 0x3636
 80017f2:	f636                	.insn	2, 0xf636
 80017f4:	3636                	.insn	2, 0x3636
 80017f6:	0036                	c.slli	zero,0xd
 80017f8:	0000                	unimp
 80017fa:	fe00                	.insn	2, 0xfe00
 80017fc:	3636                	.insn	2, 0x3636
 80017fe:	0036                	c.slli	zero,0xd
 8001800:	f800                	.insn	2, 0xf800
 8001802:	f818                	.insn	2, 0xf818
 8001804:	1818                	addi	a4,sp,48
 8001806:	3618                	.insn	2, 0x3618
 8001808:	f636                	.insn	2, 0xf636
 800180a:	f606                	.insn	2, 0xf606
 800180c:	3636                	.insn	2, 0x3636
 800180e:	3636                	.insn	2, 0x3636
 8001810:	3636                	.insn	2, 0x3636
 8001812:	3636                	.insn	2, 0x3636
 8001814:	3636                	.insn	2, 0x3636
 8001816:	0036                	c.slli	zero,0xd
 8001818:	fe00                	.insn	2, 0xfe00
 800181a:	f606                	.insn	2, 0xf606
 800181c:	3636                	.insn	2, 0x3636
 800181e:	3636                	.insn	2, 0x3636
 8001820:	f636                	.insn	2, 0xf636
 8001822:	fe06                	.insn	2, 0xfe06
 8001824:	0000                	unimp
 8001826:	3600                	.insn	2, 0x3600
 8001828:	3636                	.insn	2, 0x3636
 800182a:	fe36                	.insn	2, 0xfe36
 800182c:	0000                	unimp
 800182e:	1800                	addi	s0,sp,48
 8001830:	f818                	.insn	2, 0xf818
 8001832:	f818                	.insn	2, 0xf818
 8001834:	0000                	unimp
 8001836:	0000                	unimp
 8001838:	0000                	unimp
 800183a:	f800                	.insn	2, 0xf800
 800183c:	1818                	addi	a4,sp,48
 800183e:	1818                	addi	a4,sp,48
 8001840:	1818                	addi	a4,sp,48
 8001842:	1f18                	addi	a4,sp,944
 8001844:	0000                	unimp
 8001846:	1800                	addi	s0,sp,48
 8001848:	1818                	addi	a4,sp,48
 800184a:	ff18                	.insn	2, 0xff18
 800184c:	0000                	unimp
 800184e:	0000                	unimp
 8001850:	0000                	unimp
 8001852:	ff00                	.insn	2, 0xff00
 8001854:	1818                	addi	a4,sp,48
 8001856:	1818                	addi	a4,sp,48
 8001858:	1818                	addi	a4,sp,48
 800185a:	1f18                	addi	a4,sp,944
 800185c:	1818                	addi	a4,sp,48
 800185e:	0018                	.insn	2, 0x0018
 8001860:	0000                	unimp
 8001862:	ff00                	.insn	2, 0xff00
 8001864:	0000                	unimp
 8001866:	1800                	addi	s0,sp,48
 8001868:	1818                	addi	a4,sp,48
 800186a:	ff18                	.insn	2, 0xff18
 800186c:	1818                	addi	a4,sp,48
 800186e:	1818                	addi	a4,sp,48
 8001870:	1f18                	addi	a4,sp,944
 8001872:	1f18                	addi	a4,sp,944
 8001874:	1818                	addi	a4,sp,48
 8001876:	3618                	.insn	2, 0x3618
 8001878:	3636                	.insn	2, 0x3636
 800187a:	3736                	.insn	2, 0x3736
 800187c:	3636                	.insn	2, 0x3636
 800187e:	3636                	.insn	2, 0x3636
 8001880:	3736                	.insn	2, 0x3736
 8001882:	3f30                	.insn	2, 0x3f30
 8001884:	0000                	unimp
 8001886:	0000                	unimp
 8001888:	3f00                	.insn	2, 0x3f00
 800188a:	3730                	.insn	2, 0x3730
 800188c:	3636                	.insn	2, 0x3636
 800188e:	3636                	.insn	2, 0x3636
 8001890:	f736                	.insn	2, 0xf736
 8001892:	ff00                	.insn	2, 0xff00
 8001894:	0000                	unimp
 8001896:	0000                	unimp
 8001898:	ff00                	.insn	2, 0xff00
 800189a:	f700                	.insn	2, 0xf700
 800189c:	3636                	.insn	2, 0x3636
 800189e:	3636                	.insn	2, 0x3636
 80018a0:	3736                	.insn	2, 0x3736
 80018a2:	3730                	.insn	2, 0x3730
 80018a4:	3636                	.insn	2, 0x3636
 80018a6:	0036                	c.slli	zero,0xd
 80018a8:	ff00                	.insn	2, 0xff00
 80018aa:	ff00                	.insn	2, 0xff00
 80018ac:	0000                	unimp
 80018ae:	3600                	.insn	2, 0x3600
 80018b0:	f736                	.insn	2, 0xf736
 80018b2:	f700                	.insn	2, 0xf700
 80018b4:	3636                	.insn	2, 0x3636
 80018b6:	1836                	slli	a6,a6,0x2d
 80018b8:	ff18                	.insn	2, 0xff18
 80018ba:	ff00                	.insn	2, 0xff00
 80018bc:	0000                	unimp
 80018be:	3600                	.insn	2, 0x3600
 80018c0:	3636                	.insn	2, 0x3636
 80018c2:	ff36                	.insn	2, 0xff36
 80018c4:	0000                	unimp
 80018c6:	0000                	unimp
 80018c8:	ff00                	.insn	2, 0xff00
 80018ca:	ff00                	.insn	2, 0xff00
 80018cc:	1818                	addi	a4,sp,48
 80018ce:	0018                	.insn	2, 0x0018
 80018d0:	0000                	unimp
 80018d2:	ff00                	.insn	2, 0xff00
 80018d4:	3636                	.insn	2, 0x3636
 80018d6:	3636                	.insn	2, 0x3636
 80018d8:	3636                	.insn	2, 0x3636
 80018da:	3f36                	.insn	2, 0x3f36
 80018dc:	0000                	unimp
 80018de:	1800                	addi	s0,sp,48
 80018e0:	1f18                	addi	a4,sp,944
 80018e2:	1f18                	addi	a4,sp,944
 80018e4:	0000                	unimp
 80018e6:	0000                	unimp
 80018e8:	1f00                	addi	s0,sp,944
 80018ea:	1f18                	addi	a4,sp,944
 80018ec:	1818                	addi	a4,sp,48
 80018ee:	0018                	.insn	2, 0x0018
 80018f0:	0000                	unimp
 80018f2:	3f00                	.insn	2, 0x3f00
 80018f4:	3636                	.insn	2, 0x3636
 80018f6:	3636                	.insn	2, 0x3636
 80018f8:	3636                	.insn	2, 0x3636
 80018fa:	ff36                	.insn	2, 0xff36
 80018fc:	3636                	.insn	2, 0x3636
 80018fe:	1836                	slli	a6,a6,0x2d
 8001900:	ff18                	.insn	2, 0xff18
 8001902:	ff18                	.insn	2, 0xff18
 8001904:	1818                	addi	a4,sp,48
 8001906:	1818                	addi	a4,sp,48
 8001908:	1818                	addi	a4,sp,48
 800190a:	f818                	.insn	2, 0xf818
 800190c:	0000                	unimp
 800190e:	0000                	unimp
 8001910:	0000                	unimp
 8001912:	1f00                	addi	s0,sp,944
 8001914:	1818                	addi	a4,sp,48
 8001916:	ff18                	.insn	2, 0xff18
 8001918:	ffff                	.insn	2, 0xffff
 800191a:	ffff                	.insn	2, 0xffff
 800191c:	ffff                	.insn	2, 0xffff
 800191e:	00ff 0000 ff00 ffff 	.insn	10, 0xf0ffffffff00000000ff
 8001926:	f0ff 
 8001928:	f0f0                	.insn	2, 0xf0f0
 800192a:	f0f0                	.insn	2, 0xf0f0
 800192c:	f0f0                	.insn	2, 0xf0f0
 800192e:	0ff0                	addi	a2,sp,988
 8001930:	0f0f0f0f          	.insn	4, 0x0f0f0f0f
 8001934:	ff0f0f0f          	.insn	4, 0xff0f0f0f
 8001938:	ffff                	.insn	2, 0xffff
 800193a:	00ff 0000 0000 7600 	.insn	10, 0xc8dc76000000000000ff
 8001942:	c8dc 
 8001944:	76dc                	.insn	2, 0x76dc
 8001946:	7800                	.insn	2, 0x7800
 8001948:	cccc                	sw	a1,28(s1)
 800194a:	ccd8                	sw	a4,28(s1)
 800194c:	ccc6                	sw	a7,88(sp)
 800194e:	fe00                	.insn	2, 0xfe00
 8001950:	c0c6                	sw	a7,64(sp)
 8001952:	c0c0                	sw	s0,4(s1)
 8001954:	c0c0                	sw	s0,4(s1)
 8001956:	0000                	unimp
 8001958:	fe00                	.insn	2, 0xfe00
 800195a:	6c6c                	.insn	2, 0x6c6c
 800195c:	6c6c                	.insn	2, 0x6c6c
 800195e:	fe00                	.insn	2, 0xfe00
 8001960:	60c6                	.insn	2, 0x60c6
 8001962:	6030                	.insn	2, 0x6030
 8001964:	fec6                	.insn	2, 0xfec6
 8001966:	0000                	unimp
 8001968:	7e00                	.insn	2, 0x7e00
 800196a:	d8d8                	sw	a4,52(s1)
 800196c:	70d8                	.insn	2, 0x70d8
 800196e:	0000                	unimp
 8001970:	6600                	.insn	2, 0x6600
 8001972:	6666                	.insn	2, 0x6666
 8001974:	7c66                	.insn	2, 0x7c66
 8001976:	00c0                	addi	s0,sp,68
 8001978:	dc76                	sw	t4,56(sp)
 800197a:	1818                	addi	a4,sp,48
 800197c:	1818                	addi	a4,sp,48
 800197e:	7e00                	.insn	2, 0x7e00
 8001980:	3c18                	.insn	2, 0x3c18
 8001982:	6666                	.insn	2, 0x6666
 8001984:	183c                	addi	a5,sp,56
 8001986:	387e                	.insn	2, 0x387e
 8001988:	c66c                	sw	a1,76(a2)
 800198a:	c6fe                	sw	t6,76(sp)
 800198c:	386c                	.insn	2, 0x386c
 800198e:	3800                	.insn	2, 0x3800
 8001990:	c66c                	sw	a1,76(a2)
 8001992:	6cc6                	.insn	2, 0x6cc6
 8001994:	ee6c                	.insn	2, 0xee6c
 8001996:	0e00                	addi	s0,sp,784
 8001998:	0c18                	addi	a4,sp,528
 800199a:	663e                	.insn	2, 0x663e
 800199c:	3c66                	.insn	2, 0x3c66
 800199e:	0000                	unimp
 80019a0:	7e00                	.insn	2, 0x7e00
 80019a2:	007edbdb          	.insn	4, 0x007edbdb
 80019a6:	0600                	addi	s0,sp,768
 80019a8:	7e0c                	.insn	2, 0x7e0c
 80019aa:	607edbdb          	.insn	4, 0x607edbdb
 80019ae:	1ec0                	addi	s0,sp,884
 80019b0:	6030                	.insn	2, 0x6030
 80019b2:	607e                	.insn	2, 0x607e
 80019b4:	1e30                	addi	a2,sp,824
 80019b6:	0000                	unimp
 80019b8:	c67c                	sw	a5,76(a2)
 80019ba:	c6c6                	sw	a7,76(sp)
 80019bc:	c6c6                	sw	a7,76(sp)
 80019be:	0000                	unimp
 80019c0:	00fe                	slli	ra,ra,0x1f
 80019c2:	00fe                	slli	ra,ra,0x1f
 80019c4:	00fe                	slli	ra,ra,0x1f
 80019c6:	1800                	addi	s0,sp,48
 80019c8:	7e18                	.insn	2, 0x7e18
 80019ca:	1818                	addi	a4,sp,48
 80019cc:	7e00                	.insn	2, 0x7e00
 80019ce:	3000                	.insn	2, 0x3000
 80019d0:	0c18                	addi	a4,sp,528
 80019d2:	3018                	.insn	2, 0x3018
 80019d4:	7e00                	.insn	2, 0x7e00
 80019d6:	0c00                	addi	s0,sp,528
 80019d8:	3018                	.insn	2, 0x3018
 80019da:	0c18                	addi	a4,sp,528
 80019dc:	7e00                	.insn	2, 0x7e00
 80019de:	0e00                	addi	s0,sp,784
 80019e0:	18181b1b          	.insn	4, 0x18181b1b
 80019e4:	1818                	addi	a4,sp,48
 80019e6:	1818                	addi	a4,sp,48
 80019e8:	1818                	addi	a4,sp,48
 80019ea:	1818                	addi	a4,sp,48
 80019ec:	d8d8                	sw	a4,52(s1)
 80019ee:	0070                	addi	a2,sp,12
 80019f0:	0018                	.insn	2, 0x0018
 80019f2:	007e                	c.slli	zero,0x1f
 80019f4:	0018                	.insn	2, 0x0018
 80019f6:	0000                	unimp
 80019f8:	dc76                	sw	t4,56(sp)
 80019fa:	7600                	.insn	2, 0x7600
 80019fc:	00dc                	addi	a5,sp,68
 80019fe:	3800                	.insn	2, 0x3800
 8001a00:	6c6c                	.insn	2, 0x6c6c
 8001a02:	0038                	addi	a4,sp,8
 8001a04:	0000                	unimp
 8001a06:	0000                	unimp
 8001a08:	0000                	unimp
 8001a0a:	1818                	addi	a4,sp,48
 8001a0c:	0000                	unimp
 8001a0e:	0000                	unimp
 8001a10:	0000                	unimp
 8001a12:	0018                	.insn	2, 0x0018
 8001a14:	0000                	unimp
 8001a16:	0f00                	addi	s0,sp,912
 8001a18:	0c0c                	addi	a1,sp,528
 8001a1a:	ec0c                	.insn	2, 0xec0c
 8001a1c:	3c6c                	.insn	2, 0x3c6c
 8001a1e:	6c1c                	.insn	2, 0x6c1c
 8001a20:	3636                	.insn	2, 0x3636
 8001a22:	3636                	.insn	2, 0x3636
 8001a24:	0000                	unimp
 8001a26:	7800                	.insn	2, 0x7800
 8001a28:	180c                	addi	a1,sp,48
 8001a2a:	7c30                	.insn	2, 0x7c30
 8001a2c:	0000                	unimp
 8001a2e:	0000                	unimp
 8001a30:	3c00                	.insn	2, 0x3c00
 8001a32:	3c3c                	.insn	2, 0x3c3c
 8001a34:	003c                	addi	a5,sp,8
	...
